
build/stm32_template.elf:     file format elf32-littlearm

Sections:
Idx Name          Size      VMA       LMA       File off  Algn
  0 .text         000057c4  08000000  08000000  00008000  2**2
                  CONTENTS, ALLOC, LOAD, READONLY, CODE
  1 .ARM.attributes 00000029  00000000  00000000  0000d7c4  2**0
                  CONTENTS, READONLY
  2 .comment      00000070  00000000  00000000  0000d7ed  2**0
                  CONTENTS, READONLY
  3 .debug_frame  000000a4  00000000  00000000  0000d860  2**2
                  CONTENTS, READONLY, DEBUGGING

Disassembly of section .text:

08000000 <int_vectors>:
 8000000:	20002000 	.word	0x20002000
 8000004:	08000121 	.word	0x08000121
 8000008:	08000245 	.word	0x08000245
 800000c:	0800019d 	.word	0x0800019d
 8000010:	080001b3 	.word	0x080001b3
 8000014:	080001c9 	.word	0x080001c9
 8000018:	080001df 	.word	0x080001df
 800001c:	00000000 	.word	0x00000000
 8000020:	00000000 	.word	0x00000000
 8000024:	00000000 	.word	0x00000000
 8000028:	00000000 	.word	0x00000000
 800002c:	080001f5 	.word	0x080001f5
 8000030:	08000245 	.word	0x08000245
 8000034:	00000000 	.word	0x00000000
 8000038:	08000203 	.word	0x08000203
 800003c:	08000245 	.word	0x08000245
 8000040:	0800024f 	.word	0x0800024f
 8000044:	0800024f 	.word	0x0800024f
 8000048:	0800024f 	.word	0x0800024f
 800004c:	0800024f 	.word	0x0800024f
 8000050:	0800024f 	.word	0x0800024f
 8000054:	0800024f 	.word	0x0800024f
 8000058:	0800024f 	.word	0x0800024f
 800005c:	0800024f 	.word	0x0800024f
 8000060:	0800024f 	.word	0x0800024f
 8000064:	0800024f 	.word	0x0800024f
 8000068:	0800024f 	.word	0x0800024f
 800006c:	0800024f 	.word	0x0800024f
 8000070:	0800024f 	.word	0x0800024f
 8000074:	0800024f 	.word	0x0800024f
 8000078:	0800024f 	.word	0x0800024f
 800007c:	0800024f 	.word	0x0800024f
 8000080:	0800024f 	.word	0x0800024f
 8000084:	0800024f 	.word	0x0800024f
 8000088:	0800024f 	.word	0x0800024f
 800008c:	0800024f 	.word	0x0800024f
 8000090:	0800024f 	.word	0x0800024f
 8000094:	0800024f 	.word	0x0800024f
 8000098:	0800024f 	.word	0x0800024f
 800009c:	0800024f 	.word	0x0800024f
 80000a0:	0800024f 	.word	0x0800024f
 80000a4:	0800024f 	.word	0x0800024f
 80000a8:	0800024f 	.word	0x0800024f
 80000ac:	0800024f 	.word	0x0800024f
 80000b0:	0800024f 	.word	0x0800024f
 80000b4:	0800024f 	.word	0x0800024f
 80000b8:	0800024f 	.word	0x0800024f
 80000bc:	0800024f 	.word	0x0800024f
 80000c0:	0800024f 	.word	0x0800024f
 80000c4:	0800024f 	.word	0x0800024f
 80000c8:	0800024f 	.word	0x0800024f
 80000cc:	0800024f 	.word	0x0800024f
 80000d0:	0800024f 	.word	0x0800024f
 80000d4:	0800024f 	.word	0x0800024f
 80000d8:	0800024f 	.word	0x0800024f
 80000dc:	0800024f 	.word	0x0800024f
 80000e0:	0800024f 	.word	0x0800024f
 80000e4:	0800024f 	.word	0x0800024f
 80000e8:	0800024f 	.word	0x0800024f
 80000ec:	0800024f 	.word	0x0800024f
 80000f0:	0800024f 	.word	0x0800024f
 80000f4:	0800024f 	.word	0x0800024f
 80000f8:	0800024f 	.word	0x0800024f
 80000fc:	0800024f 	.word	0x0800024f
 8000100:	0800024f 	.word	0x0800024f
 8000104:	0800024f 	.word	0x0800024f
 8000108:	0800024f 	.word	0x0800024f
 800010c:	0800024f 	.word	0x0800024f
 8000110:	0800024f 	.word	0x0800024f
 8000114:	0800024f 	.word	0x0800024f
 8000118:	0800024f 	.word	0x0800024f
 800011c:	0800024f 	.word	0x0800024f

08000120 <Reset_Handler>:
 8000120:	b672      	cpsid	i
 8000122:	4912      	ldr	r1, [pc, #72]	; (800016c <profiling_loop+0x10>)
 8000124:	4812      	ldr	r0, [pc, #72]	; (8000170 <profiling_loop+0x14>)
 8000126:	6008      	str	r0, [r1, #0]
 8000128:	4912      	ldr	r1, [pc, #72]	; (8000174 <profiling_loop+0x18>)
 800012a:	4813      	ldr	r0, [pc, #76]	; (8000178 <profiling_loop+0x1c>)
 800012c:	6008      	str	r0, [r1, #0]
 800012e:	4913      	ldr	r1, [pc, #76]	; (800017c <profiling_loop+0x20>)
 8000130:	4813      	ldr	r0, [pc, #76]	; (8000180 <profiling_loop+0x24>)
 8000132:	6008      	str	r0, [r1, #0]
 8000134:	4913      	ldr	r1, [pc, #76]	; (8000184 <profiling_loop+0x28>)
 8000136:	2207      	movs	r2, #7
 8000138:	0412      	lsls	r2, r2, #16
 800013a:	6808      	ldr	r0, [r1, #0]
 800013c:	4310      	orrs	r0, r2
 800013e:	6008      	str	r0, [r1, #0]
 8000140:	4811      	ldr	r0, [pc, #68]	; (8000188 <profiling_loop+0x2c>)
 8000142:	4912      	ldr	r1, [pc, #72]	; (800018c <profiling_loop+0x30>)
 8000144:	6008      	str	r0, [r1, #0]
 8000146:	6048      	str	r0, [r1, #4]
 8000148:	6088      	str	r0, [r1, #8]
 800014a:	60c8      	str	r0, [r1, #12]
 800014c:	6108      	str	r0, [r1, #16]
 800014e:	6148      	str	r0, [r1, #20]
 8000150:	6188      	str	r0, [r1, #24]
 8000152:	61c8      	str	r0, [r1, #28]
 8000154:	490e      	ldr	r1, [pc, #56]	; (8000190 <profiling_loop+0x34>)
 8000156:	4a0f      	ldr	r2, [pc, #60]	; (8000194 <profiling_loop+0x38>)
 8000158:	1a88      	subs	r0, r1, r2
 800015a:	4a0f      	ldr	r2, [pc, #60]	; (8000198 <profiling_loop+0x3c>)

0800015c <profiling_loop>:
 800015c:	f840 2b04 	str.w	r2, [r0], #4
 8000160:	4288      	cmp	r0, r1
 8000162:	d3fb      	bcc.n	800015c <profiling_loop>
 8000164:	f000 fad2 	bl	800070c <startup>
 8000168:	b662      	cpsie	i
 800016a:	e7fe      	b.n	800016a <profiling_loop+0xe>
 800016c:	e000ed18 	.word	0xe000ed18
 8000170:	00000000 	.word	0x00000000
 8000174:	e000ed1c 	.word	0xe000ed1c
 8000178:	ff000000 	.word	0xff000000
 800017c:	e000ed20 	.word	0xe000ed20
 8000180:	00ff0000 	.word	0x00ff0000
 8000184:	e000ed24 	.word	0xe000ed24
 8000188:	ffffffff 	.word	0xffffffff
 800018c:	e000e280 	.word	0xe000e280
 8000190:	20002000 	.word	0x20002000
 8000194:	00000200 	.word	0x00000200
 8000198:	cdcdcdcd 	.word	0xcdcdcdcd

0800019c <HardFault_Handler>:
 800019c:	4670      	mov	r0, lr
 800019e:	f110 0f03 	cmn.w	r0, #3
 80001a2:	d102      	bne.n	80001aa <HardFault_Handler+0xe>
 80001a4:	f3ef 8109 	mrs	r1, PSP
 80001a8:	e001      	b.n	80001ae <HardFault_Handler+0x12>
 80001aa:	f3ef 8108 	mrs	r1, MSP
 80001ae:	f000 b881 	b.w	80002b4 <on_hard_fault>

080001b2 <MemManage_Handler>:
 80001b2:	4670      	mov	r0, lr
 80001b4:	f110 0f03 	cmn.w	r0, #3
 80001b8:	d102      	bne.n	80001c0 <MemManage_Handler+0xe>
 80001ba:	f3ef 8109 	mrs	r1, PSP
 80001be:	e001      	b.n	80001c4 <MemManage_Handler+0x12>
 80001c0:	f3ef 8108 	mrs	r1, MSP
 80001c4:	f000 b8aa 	b.w	800031c <on_mem_manage>

080001c8 <BusFault_Handler>:
 80001c8:	4670      	mov	r0, lr
 80001ca:	f110 0f03 	cmn.w	r0, #3
 80001ce:	d102      	bne.n	80001d6 <BusFault_Handler+0xe>
 80001d0:	f3ef 8109 	mrs	r1, PSP
 80001d4:	e001      	b.n	80001da <BusFault_Handler+0x12>
 80001d6:	f3ef 8108 	mrs	r1, MSP
 80001da:	f000 b8ed 	b.w	80003b8 <on_bus_fault>

080001de <UsageFault_Handler>:
 80001de:	4670      	mov	r0, lr
 80001e0:	f110 0f03 	cmn.w	r0, #3
 80001e4:	d102      	bne.n	80001ec <UsageFault_Handler+0xe>
 80001e6:	f3ef 8109 	mrs	r1, PSP
 80001ea:	e001      	b.n	80001f0 <UsageFault_Handler+0x12>
 80001ec:	f3ef 8108 	mrs	r1, MSP
 80001f0:	f000 b91c 	b.w	800042c <on_usage_fault>

080001f4 <SVC_Handler>:
 80001f4:	f3ef 8009 	mrs	r0, PSP
 80001f8:	c80f      	ldmia	r0, {r0, r1, r2, r3}
 80001fa:	f000 f953 	bl	80004a4 <svc>
 80001fe:	f8df f078 	ldr.w	pc, [pc, #120]	; 8000278 <process_setup_context+0x18>

08000202 <PendSV_Handler>:
 8000202:	b672      	cpsid	i
 8000204:	4a1d      	ldr	r2, [pc, #116]	; (800027c <process_setup_context+0x1c>)
 8000206:	481e      	ldr	r0, [pc, #120]	; (8000280 <process_setup_context+0x20>)
 8000208:	6010      	str	r0, [r2, #0]
 800020a:	491e      	ldr	r1, [pc, #120]	; (8000284 <process_setup_context+0x24>)
 800020c:	68cb      	ldr	r3, [r1, #12]
 800020e:	2b00      	cmp	r3, #0
 8000210:	d004      	beq.n	800021c <load_context>
 8000212:	f3ef 8009 	mrs	r0, PSP
 8000216:	e920 0ff0 	stmdb	r0!, {r4, r5, r6, r7, r8, r9, sl, fp}
 800021a:	60d8      	str	r0, [r3, #12]

0800021c <load_context>:
 800021c:	690a      	ldr	r2, [r1, #16]
 800021e:	2a00      	cmp	r2, #0
 8000220:	d00a      	beq.n	8000238 <halt_core>
 8000222:	68d0      	ldr	r0, [r2, #12]
 8000224:	e8b0 0ff0 	ldmia.w	r0!, {r4, r5, r6, r7, r8, r9, sl, fp}
 8000228:	f380 8809 	msr	PSP, r0
 800022c:	60ca      	str	r2, [r1, #12]
 800022e:	2000      	movs	r0, #0
 8000230:	6108      	str	r0, [r1, #16]

08000232 <context_exit>:
 8000232:	b662      	cpsie	i
 8000234:	f8df f040 	ldr.w	pc, [pc, #64]	; 8000278 <process_setup_context+0x18>

08000238 <halt_core>:
 8000238:	b662      	cpsie	i
 800023a:	b672      	cpsid	i
 800023c:	4a0f      	ldr	r2, [pc, #60]	; (800027c <process_setup_context+0x1c>)
 800023e:	4810      	ldr	r0, [pc, #64]	; (8000280 <process_setup_context+0x20>)
 8000240:	6010      	str	r0, [r2, #0]
 8000242:	e7eb      	b.n	800021c <load_context>

08000244 <DebugMon_Handler>:
 8000244:	f3ef 8005 	mrs	r0, IPSR
 8000248:	3810      	subs	r0, #16
 800024a:	f000 bc71 	b.w	8000b30 <kirq_stub>

0800024e <irq_handler>:
 800024e:	f3ef 8005 	mrs	r0, IPSR
 8000252:	3810      	subs	r0, #16
 8000254:	f000 bc8e 	b.w	8000b74 <kirq_enter>

08000258 <pend_switch_context>:
 8000258:	4908      	ldr	r1, [pc, #32]	; (800027c <process_setup_context+0x1c>)
 800025a:	480b      	ldr	r0, [pc, #44]	; (8000288 <process_setup_context+0x28>)
 800025c:	6008      	str	r0, [r1, #0]
 800025e:	4770      	bx	lr

08000260 <process_setup_context>:
 8000260:	68c2      	ldr	r2, [r0, #12]
 8000262:	08d2      	lsrs	r2, r2, #3
 8000264:	00d2      	lsls	r2, r2, #3
 8000266:	3a40      	subs	r2, #64	; 0x40
 8000268:	4b08      	ldr	r3, [pc, #32]	; (800028c <process_setup_context+0x2c>)
 800026a:	6353      	str	r3, [r2, #52]	; 0x34
 800026c:	6391      	str	r1, [r2, #56]	; 0x38
 800026e:	f05f 7380 	movs.w	r3, #16777216	; 0x1000000
 8000272:	63d3      	str	r3, [r2, #60]	; 0x3c
 8000274:	60c2      	str	r2, [r0, #12]
 8000276:	4770      	bx	lr
 8000278:	fffffffd 	.word	0xfffffffd
 800027c:	e000ed04 	.word	0xe000ed04
 8000280:	08000000 	.word	0x08000000
 8000284:	2000000c 	.word	0x2000000c
 8000288:	10000000 	.word	0x10000000
 800028c:	08001215 	.word	0x08001215

08000290 <svc_call>:
 8000290:	df12      	svc	18
 8000292:	4770      	bx	lr

08000294 <process_fault>:
 8000294:	3003      	adds	r0, #3
 8000296:	b508      	push	{r3, lr}
 8000298:	d105      	bne.n	80002a6 <process_fault+0x12>
 800029a:	f000 ffb2 	bl	8001202 <kprocess_destroy_current>
 800029e:	4b04      	ldr	r3, [pc, #16]	; (80002b0 <process_fault+0x1c>)
 80002a0:	2200      	movs	r2, #0
 80002a2:	601a      	str	r2, [r3, #0]
 80002a4:	bd08      	pop	{r3, pc}
 80002a6:	e8bd 4008 	ldmia.w	sp!, {r3, lr}
 80002aa:	f000 ba21 	b.w	80006f0 <panic>
 80002ae:	bf00      	nop
 80002b0:	e000ed28 	.word	0xe000ed28

080002b4 <on_hard_fault>:
 80002b4:	b538      	push	{r3, r4, r5, lr}
 80002b6:	4605      	mov	r5, r0
 80002b8:	4813      	ldr	r0, [pc, #76]	; (8000308 <on_hard_fault+0x54>)
 80002ba:	460c      	mov	r4, r1
 80002bc:	f000 fa4e 	bl	800075c <printk>
 80002c0:	4b12      	ldr	r3, [pc, #72]	; (800030c <on_hard_fault+0x58>)
 80002c2:	681b      	ldr	r3, [r3, #0]
 80002c4:	079a      	lsls	r2, r3, #30
 80002c6:	d502      	bpl.n	80002ce <on_hard_fault+0x1a>
 80002c8:	4811      	ldr	r0, [pc, #68]	; (8000310 <on_hard_fault+0x5c>)
 80002ca:	69a1      	ldr	r1, [r4, #24]
 80002cc:	e00b      	b.n	80002e6 <on_hard_fault+0x32>
 80002ce:	f64d 7312 	movw	r3, #57106	; 0xdf12
 80002d2:	69a1      	ldr	r1, [r4, #24]
 80002d4:	f831 2c02 	ldrh.w	r2, [r1, #-2]
 80002d8:	429a      	cmp	r2, r3
 80002da:	bf05      	ittet	eq
 80002dc:	6961      	ldreq	r1, [r4, #20]
 80002de:	480d      	ldreq	r0, [pc, #52]	; (8000314 <on_hard_fault+0x60>)
 80002e0:	480d      	ldrne	r0, [pc, #52]	; (8000318 <on_hard_fault+0x64>)
 80002e2:	f021 0101 	biceq.w	r1, r1, #1
 80002e6:	f000 fa39 	bl	800075c <printk>
 80002ea:	1ceb      	adds	r3, r5, #3
 80002ec:	d107      	bne.n	80002fe <on_hard_fault+0x4a>
 80002ee:	69a3      	ldr	r3, [r4, #24]
 80002f0:	f833 2c02 	ldrh.w	r2, [r3, #-2]
 80002f4:	f64d 7312 	movw	r3, #57106	; 0xdf12
 80002f8:	429a      	cmp	r2, r3
 80002fa:	d100      	bne.n	80002fe <on_hard_fault+0x4a>
 80002fc:	b662      	cpsie	i
 80002fe:	4628      	mov	r0, r5
 8000300:	e8bd 4038 	ldmia.w	sp!, {r3, r4, r5, lr}
 8000304:	f7ff bfc6 	b.w	8000294 <process_fault>
 8000308:	08004f2c 	.word	0x08004f2c
 800030c:	e000ed2c 	.word	0xe000ed2c
 8000310:	08004f39 	.word	0x08004f39
 8000314:	08004f5c 	.word	0x08004f5c
 8000318:	08004f8a 	.word	0x08004f8a

0800031c <on_mem_manage>:
 800031c:	b570      	push	{r4, r5, r6, lr}
 800031e:	4c1d      	ldr	r4, [pc, #116]	; (8000394 <on_mem_manage+0x78>)
 8000320:	4606      	mov	r6, r0
 8000322:	6823      	ldr	r3, [r4, #0]
 8000324:	460d      	mov	r5, r1
 8000326:	f013 0f18 	tst.w	r3, #24
 800032a:	d014      	beq.n	8000356 <on_mem_manage+0x3a>
 800032c:	481a      	ldr	r0, [pc, #104]	; (8000398 <on_mem_manage+0x7c>)
 800032e:	f000 fa15 	bl	800075c <printk>
 8000332:	6823      	ldr	r3, [r4, #0]
 8000334:	06d9      	lsls	r1, r3, #27
 8000336:	d501      	bpl.n	800033c <on_mem_manage+0x20>
 8000338:	4818      	ldr	r0, [pc, #96]	; (800039c <on_mem_manage+0x80>)
 800033a:	e002      	b.n	8000342 <on_mem_manage+0x26>
 800033c:	071a      	lsls	r2, r3, #28
 800033e:	d502      	bpl.n	8000346 <on_mem_manage+0x2a>
 8000340:	4817      	ldr	r0, [pc, #92]	; (80003a0 <on_mem_manage+0x84>)
 8000342:	f000 fa0b 	bl	800075c <printk>
 8000346:	69a9      	ldr	r1, [r5, #24]
 8000348:	4816      	ldr	r0, [pc, #88]	; (80003a4 <on_mem_manage+0x88>)
 800034a:	f000 fa07 	bl	800075c <printk>
 800034e:	e8bd 4070 	ldmia.w	sp!, {r4, r5, r6, lr}
 8000352:	f000 b9cd 	b.w	80006f0 <panic>
 8000356:	079b      	lsls	r3, r3, #30
 8000358:	d017      	beq.n	800038a <on_mem_manage+0x6e>
 800035a:	480f      	ldr	r0, [pc, #60]	; (8000398 <on_mem_manage+0x7c>)
 800035c:	f000 f9fe 	bl	800075c <printk>
 8000360:	6823      	ldr	r3, [r4, #0]
 8000362:	079a      	lsls	r2, r3, #30
 8000364:	d501      	bpl.n	800036a <on_mem_manage+0x4e>
 8000366:	4810      	ldr	r0, [pc, #64]	; (80003a8 <on_mem_manage+0x8c>)
 8000368:	e002      	b.n	8000370 <on_mem_manage+0x54>
 800036a:	07db      	lsls	r3, r3, #31
 800036c:	d502      	bpl.n	8000374 <on_mem_manage+0x58>
 800036e:	480f      	ldr	r0, [pc, #60]	; (80003ac <on_mem_manage+0x90>)
 8000370:	f000 f9f4 	bl	800075c <printk>
 8000374:	4b0e      	ldr	r3, [pc, #56]	; (80003b0 <on_mem_manage+0x94>)
 8000376:	480f      	ldr	r0, [pc, #60]	; (80003b4 <on_mem_manage+0x98>)
 8000378:	69aa      	ldr	r2, [r5, #24]
 800037a:	6819      	ldr	r1, [r3, #0]
 800037c:	f000 f9ee 	bl	800075c <printk>
 8000380:	4630      	mov	r0, r6
 8000382:	e8bd 4070 	ldmia.w	sp!, {r4, r5, r6, lr}
 8000386:	f7ff bf85 	b.w	8000294 <process_fault>
 800038a:	e8bd 4070 	ldmia.w	sp!, {r4, r5, r6, lr}
 800038e:	f7ff bf91 	b.w	80002b4 <on_hard_fault>
 8000392:	bf00      	nop
 8000394:	e000ed28 	.word	0xe000ed28
 8000398:	08004fa8 	.word	0x08004fa8
 800039c:	08004fb5 	.word	0x08004fb5
 80003a0:	08004fc5 	.word	0x08004fc5
 80003a4:	08005040 	.word	0x08005040
 80003a8:	08004fd7 	.word	0x08004fd7
 80003ac:	08004fed 	.word	0x08004fed
 80003b0:	e000ed34 	.word	0xe000ed34
 80003b4:	0800500a 	.word	0x0800500a

080003b8 <on_bus_fault>:
 80003b8:	b538      	push	{r3, r4, r5, lr}
 80003ba:	4d15      	ldr	r5, [pc, #84]	; (8000410 <on_bus_fault+0x58>)
 80003bc:	460c      	mov	r4, r1
 80003be:	682b      	ldr	r3, [r5, #0]
 80003c0:	f413 5ff8 	tst.w	r3, #7936	; 0x1f00
 80003c4:	d01f      	beq.n	8000406 <on_bus_fault+0x4e>
 80003c6:	4813      	ldr	r0, [pc, #76]	; (8000414 <on_bus_fault+0x5c>)
 80003c8:	f000 f9c8 	bl	800075c <printk>
 80003cc:	682b      	ldr	r3, [r5, #0]
 80003ce:	04d9      	lsls	r1, r3, #19
 80003d0:	d501      	bpl.n	80003d6 <on_bus_fault+0x1e>
 80003d2:	4811      	ldr	r0, [pc, #68]	; (8000418 <on_bus_fault+0x60>)
 80003d4:	e002      	b.n	80003dc <on_bus_fault+0x24>
 80003d6:	051a      	lsls	r2, r3, #20
 80003d8:	d504      	bpl.n	80003e4 <on_bus_fault+0x2c>
 80003da:	4810      	ldr	r0, [pc, #64]	; (800041c <on_bus_fault+0x64>)
 80003dc:	69a1      	ldr	r1, [r4, #24]
 80003de:	f000 f9bd 	bl	800075c <printk>
 80003e2:	e00c      	b.n	80003fe <on_bus_fault+0x46>
 80003e4:	f413 6fc0 	tst.w	r3, #1536	; 0x600
 80003e8:	d001      	beq.n	80003ee <on_bus_fault+0x36>
 80003ea:	480d      	ldr	r0, [pc, #52]	; (8000420 <on_bus_fault+0x68>)
 80003ec:	e002      	b.n	80003f4 <on_bus_fault+0x3c>
 80003ee:	05db      	lsls	r3, r3, #23
 80003f0:	d505      	bpl.n	80003fe <on_bus_fault+0x46>
 80003f2:	480c      	ldr	r0, [pc, #48]	; (8000424 <on_bus_fault+0x6c>)
 80003f4:	4b0c      	ldr	r3, [pc, #48]	; (8000428 <on_bus_fault+0x70>)
 80003f6:	69a2      	ldr	r2, [r4, #24]
 80003f8:	6819      	ldr	r1, [r3, #0]
 80003fa:	f000 f9af 	bl	800075c <printk>
 80003fe:	e8bd 4038 	ldmia.w	sp!, {r3, r4, r5, lr}
 8000402:	f000 b975 	b.w	80006f0 <panic>
 8000406:	e8bd 4038 	ldmia.w	sp!, {r3, r4, r5, lr}
 800040a:	f7ff bf53 	b.w	80002b4 <on_hard_fault>
 800040e:	bf00      	nop
 8000410:	e000ed28 	.word	0xe000ed28
 8000414:	08005025 	.word	0x08005025
 8000418:	08005031 	.word	0x08005031
 800041c:	0800504c 	.word	0x0800504c
 8000420:	08005069 	.word	0x08005069
 8000424:	08005092 	.word	0x08005092
 8000428:	e000ed38 	.word	0xe000ed38

0800042c <on_usage_fault>:
 800042c:	b538      	push	{r3, r4, r5, lr}
 800042e:	4604      	mov	r4, r0
 8000430:	4812      	ldr	r0, [pc, #72]	; (800047c <on_usage_fault+0x50>)
 8000432:	460d      	mov	r5, r1
 8000434:	f000 f992 	bl	800075c <printk>
 8000438:	4b11      	ldr	r3, [pc, #68]	; (8000480 <on_usage_fault+0x54>)
 800043a:	681b      	ldr	r3, [r3, #0]
 800043c:	0198      	lsls	r0, r3, #6
 800043e:	d501      	bpl.n	8000444 <on_usage_fault+0x18>
 8000440:	4810      	ldr	r0, [pc, #64]	; (8000484 <on_usage_fault+0x58>)
 8000442:	e00f      	b.n	8000464 <on_usage_fault+0x38>
 8000444:	01d9      	lsls	r1, r3, #7
 8000446:	d501      	bpl.n	800044c <on_usage_fault+0x20>
 8000448:	480f      	ldr	r0, [pc, #60]	; (8000488 <on_usage_fault+0x5c>)
 800044a:	e00b      	b.n	8000464 <on_usage_fault+0x38>
 800044c:	031a      	lsls	r2, r3, #12
 800044e:	d501      	bpl.n	8000454 <on_usage_fault+0x28>
 8000450:	480e      	ldr	r0, [pc, #56]	; (800048c <on_usage_fault+0x60>)
 8000452:	e007      	b.n	8000464 <on_usage_fault+0x38>
 8000454:	f413 2fa0 	tst.w	r3, #327680	; 0x50000
 8000458:	d001      	beq.n	800045e <on_usage_fault+0x32>
 800045a:	480d      	ldr	r0, [pc, #52]	; (8000490 <on_usage_fault+0x64>)
 800045c:	e002      	b.n	8000464 <on_usage_fault+0x38>
 800045e:	039b      	lsls	r3, r3, #14
 8000460:	d502      	bpl.n	8000468 <on_usage_fault+0x3c>
 8000462:	480c      	ldr	r0, [pc, #48]	; (8000494 <on_usage_fault+0x68>)
 8000464:	f000 f97a 	bl	800075c <printk>
 8000468:	480b      	ldr	r0, [pc, #44]	; (8000498 <on_usage_fault+0x6c>)
 800046a:	69a9      	ldr	r1, [r5, #24]
 800046c:	f000 f976 	bl	800075c <printk>
 8000470:	4620      	mov	r0, r4
 8000472:	e8bd 4038 	ldmia.w	sp!, {r3, r4, r5, lr}
 8000476:	f7ff bf0d 	b.w	8000294 <process_fault>
 800047a:	bf00      	nop
 800047c:	080050c2 	.word	0x080050c2
 8000480:	e000ed28 	.word	0xe000ed28
 8000484:	080050d0 	.word	0x080050d0
 8000488:	080050e1 	.word	0x080050e1
 800048c:	080050f2 	.word	0x080050f2
 8000490:	08005107 	.word	0x08005107
 8000494:	0800511d 	.word	0x0800511d
 8000498:	08005040 	.word	0x08005040

0800049c <stdout_stub>:
 800049c:	f06f 000a 	mvn.w	r0, #10
 80004a0:	f000 bea4 	b.w	80011ec <kprocess_error_current>

080004a4 <svc>:
 80004a4:	b570      	push	{r4, r5, r6, lr}
 80004a6:	460c      	mov	r4, r1
 80004a8:	4611      	mov	r1, r2
 80004aa:	461a      	mov	r2, r3
 80004ac:	2833      	cmp	r0, #51	; 0x33
 80004ae:	f200 8110 	bhi.w	80006d2 <svc+0x22e>
 80004b2:	e8df f010 	tbh	[pc, r0, lsl #1]
 80004b6:	0034      	.short	0x0034
 80004b8:	003e0039 	.word	0x003e0039
 80004bc:	00480043 	.word	0x00480043
 80004c0:	0052004d 	.word	0x0052004d
 80004c4:	00600057 	.word	0x00600057
 80004c8:	00680064 	.word	0x00680064
 80004cc:	007a006d 	.word	0x007a006d
 80004d0:	00720076 	.word	0x00720076
 80004d4:	0084007f 	.word	0x0084007f
 80004d8:	008f008a 	.word	0x008f008a
 80004dc:	00990094 	.word	0x00990094
 80004e0:	00a3009e 	.word	0x00a3009e
 80004e4:	00ad00a8 	.word	0x00ad00a8
 80004e8:	00b700b2 	.word	0x00b700b2
 80004ec:	00c100bc 	.word	0x00c100bc
 80004f0:	00cc00c7 	.word	0x00cc00c7
 80004f4:	00d600d1 	.word	0x00d600d1
 80004f8:	010e00db 	.word	0x010e00db
 80004fc:	010e010e 	.word	0x010e010e
 8000500:	010e010e 	.word	0x010e010e
 8000504:	010e010e 	.word	0x010e010e
 8000508:	010e010e 	.word	0x010e010e
 800050c:	00e0010e 	.word	0x00e0010e
 8000510:	00ea00e5 	.word	0x00ea00e5
 8000514:	00f400ef 	.word	0x00f400ef
 8000518:	010600f9 	.word	0x010600f9
 800051c:	0114      	.short	0x0114
 800051e:	4620      	mov	r0, r4
 8000520:	e8bd 4070 	ldmia.w	sp!, {r4, r5, r6, lr}
 8000524:	f000 bc80 	b.w	8000e28 <kprocess_create>
 8000528:	4620      	mov	r0, r4
 800052a:	e8bd 4070 	ldmia.w	sp!, {r4, r5, r6, lr}
 800052e:	f000 bd97 	b.w	8001060 <kprocess_get_current_svc>
 8000532:	4620      	mov	r0, r4
 8000534:	e8bd 4070 	ldmia.w	sp!, {r4, r5, r6, lr}
 8000538:	f000 bd0e 	b.w	8000f58 <kprocess_get_flags>
 800053c:	4620      	mov	r0, r4
 800053e:	e8bd 4070 	ldmia.w	sp!, {r4, r5, r6, lr}
 8000542:	f000 bd1f 	b.w	8000f84 <kprocess_set_flags>
 8000546:	4620      	mov	r0, r4
 8000548:	e8bd 4070 	ldmia.w	sp!, {r4, r5, r6, lr}
 800054c:	f000 bd72 	b.w	8001034 <kprocess_get_priority>
 8000550:	4620      	mov	r0, r4
 8000552:	e8bd 4070 	ldmia.w	sp!, {r4, r5, r6, lr}
 8000556:	f000 bd49 	b.w	8000fec <kprocess_set_priority>
 800055a:	4620      	mov	r0, r4
 800055c:	e8bd 4070 	ldmia.w	sp!, {r4, r5, r6, lr}
 8000560:	f000 bd84 	b.w	800106c <kprocess_destroy>
 8000564:	f000 fcec 	bl	8000f40 <kprocess_get_current>
 8000568:	2200      	movs	r2, #0
 800056a:	4621      	mov	r1, r4
 800056c:	e8bd 4070 	ldmia.w	sp!, {r4, r5, r6, lr}
 8000570:	4613      	mov	r3, r2
 8000572:	f000 bdd3 	b.w	800111c <kprocess_sleep>
 8000576:	e8bd 4070 	ldmia.w	sp!, {r4, r5, r6, lr}
 800057a:	f000 be69 	b.w	8001250 <kprocess_switch_test>
 800057e:	e8bd 4070 	ldmia.w	sp!, {r4, r5, r6, lr}
 8000582:	f000 bee1 	b.w	8001348 <kprocess_info>
 8000586:	4620      	mov	r0, r4
 8000588:	e8bd 4070 	ldmia.w	sp!, {r4, r5, r6, lr}
 800058c:	f000 bb02 	b.w	8000b94 <kirq_register>
 8000590:	4620      	mov	r0, r4
 8000592:	e8bd 4070 	ldmia.w	sp!, {r4, r5, r6, lr}
 8000596:	f000 bb2b 	b.w	8000bf0 <kirq_unregister>
 800059a:	e8bd 4070 	ldmia.w	sp!, {r4, r5, r6, lr}
 800059e:	f001 b8ab 	b.w	80016f8 <ksystime_hpet_timeout>
 80005a2:	e8bd 4070 	ldmia.w	sp!, {r4, r5, r6, lr}
 80005a6:	f001 b885 	b.w	80016b4 <ksystime_second_pulse>
 80005aa:	4620      	mov	r0, r4
 80005ac:	e8bd 4070 	ldmia.w	sp!, {r4, r5, r6, lr}
 80005b0:	f001 b87a 	b.w	80016a8 <ksystime_get_uptime>
 80005b4:	4620      	mov	r0, r4
 80005b6:	e8bd 4070 	ldmia.w	sp!, {r4, r5, r6, lr}
 80005ba:	f001 b8b9 	b.w	8001730 <ksystime_hpet_setup>
 80005be:	4620      	mov	r0, r4
 80005c0:	e8bd 4070 	ldmia.w	sp!, {r4, r5, r6, lr}
 80005c4:	b2d2      	uxtb	r2, r2
 80005c6:	f001 b94d 	b.w	8001864 <ksystime_soft_timer_create>
 80005ca:	4620      	mov	r0, r4
 80005cc:	e8bd 4070 	ldmia.w	sp!, {r4, r5, r6, lr}
 80005d0:	f001 b986 	b.w	80018e0 <ksystime_soft_timer_start>
 80005d4:	4620      	mov	r0, r4
 80005d6:	e8bd 4070 	ldmia.w	sp!, {r4, r5, r6, lr}
 80005da:	f001 b9a9 	b.w	8001930 <ksystime_soft_timer_stop>
 80005de:	4620      	mov	r0, r4
 80005e0:	e8bd 4070 	ldmia.w	sp!, {r4, r5, r6, lr}
 80005e4:	f001 b960 	b.w	80018a8 <ksystime_soft_timer_destroy>
 80005e8:	4620      	mov	r0, r4
 80005ea:	e8bd 4070 	ldmia.w	sp!, {r4, r5, r6, lr}
 80005ee:	f001 baca 	b.w	8001b86 <kipc_post>
 80005f2:	4620      	mov	r0, r4
 80005f4:	e8bd 4070 	ldmia.w	sp!, {r4, r5, r6, lr}
 80005f8:	f001 bacf 	b.w	8001b9a <kipc_wait>
 80005fc:	4620      	mov	r0, r4
 80005fe:	e8bd 4070 	ldmia.w	sp!, {r4, r5, r6, lr}
 8000602:	f001 bad7 	b.w	8001bb4 <kipc_call>
 8000606:	4620      	mov	r0, r4
 8000608:	e8bd 4070 	ldmia.w	sp!, {r4, r5, r6, lr}
 800060c:	f001 bb6a 	b.w	8001ce4 <kstream_create>
 8000610:	4620      	mov	r0, r4
 8000612:	e8bd 4070 	ldmia.w	sp!, {r4, r5, r6, lr}
 8000616:	f001 bb97 	b.w	8001d48 <kstream_open>
 800061a:	4620      	mov	r0, r4
 800061c:	e8bd 4070 	ldmia.w	sp!, {r4, r5, r6, lr}
 8000620:	f001 bbc4 	b.w	8001dac <kstream_close>
 8000624:	4620      	mov	r0, r4
 8000626:	e8bd 4070 	ldmia.w	sp!, {r4, r5, r6, lr}
 800062a:	f001 bbf1 	b.w	8001e10 <kstream_get_size>
 800062e:	4620      	mov	r0, r4
 8000630:	e8bd 4070 	ldmia.w	sp!, {r4, r5, r6, lr}
 8000634:	f001 bc04 	b.w	8001e40 <kstream_get_free>
 8000638:	4620      	mov	r0, r4
 800063a:	e8bd 4070 	ldmia.w	sp!, {r4, r5, r6, lr}
 800063e:	b2d2      	uxtb	r2, r2
 8000640:	f001 bc34 	b.w	8001eac <kstream_listen>
 8000644:	4620      	mov	r0, r4
 8000646:	e8bd 4070 	ldmia.w	sp!, {r4, r5, r6, lr}
 800064a:	f001 bc6b 	b.w	8001f24 <kstream_stop_listen>
 800064e:	4620      	mov	r0, r4
 8000650:	e8bd 4070 	ldmia.w	sp!, {r4, r5, r6, lr}
 8000654:	f001 bc8a 	b.w	8001f6c <kstream_write>
 8000658:	4620      	mov	r0, r4
 800065a:	e8bd 4070 	ldmia.w	sp!, {r4, r5, r6, lr}
 800065e:	f001 bd2f 	b.w	80020c0 <kstream_read>
 8000662:	4620      	mov	r0, r4
 8000664:	e8bd 4070 	ldmia.w	sp!, {r4, r5, r6, lr}
 8000668:	f001 bde4 	b.w	8002234 <kstream_flush>
 800066c:	4620      	mov	r0, r4
 800066e:	e8bd 4070 	ldmia.w	sp!, {r4, r5, r6, lr}
 8000672:	f001 be07 	b.w	8002284 <kstream_destroy>
 8000676:	4620      	mov	r0, r4
 8000678:	e8bd 4070 	ldmia.w	sp!, {r4, r5, r6, lr}
 800067c:	f001 be73 	b.w	8002366 <kio_create>
 8000680:	4620      	mov	r0, r4
 8000682:	e8bd 4070 	ldmia.w	sp!, {r4, r5, r6, lr}
 8000686:	f001 bebf 	b.w	8002408 <kio_destroy>
 800068a:	4620      	mov	r0, r4
 800068c:	e8bd 4070 	ldmia.w	sp!, {r4, r5, r6, lr}
 8000690:	f001 be34 	b.w	80022fc <kobject_set>
 8000694:	4620      	mov	r0, r4
 8000696:	e8bd 4070 	ldmia.w	sp!, {r4, r5, r6, lr}
 800069a:	f001 be50 	b.w	800233e <kobject_get>
 800069e:	4620      	mov	r0, r4
 80006a0:	e8bd 4070 	ldmia.w	sp!, {r4, r5, r6, lr}
 80006a4:	f000 b9ee 	b.w	8000a84 <kstdlib_add_pool>
 80006a8:	4b0d      	ldr	r3, [pc, #52]	; (80006e0 <svc+0x23c>)
 80006aa:	4a0e      	ldr	r2, [pc, #56]	; (80006e4 <svc+0x240>)
 80006ac:	6858      	ldr	r0, [r3, #4]
 80006ae:	4290      	cmp	r0, r2
 80006b0:	d10f      	bne.n	80006d2 <svc+0x22e>
 80006b2:	605c      	str	r4, [r3, #4]
 80006b4:	6099      	str	r1, [r3, #8]
 80006b6:	480c      	ldr	r0, [pc, #48]	; (80006e8 <svc+0x244>)
 80006b8:	490c      	ldr	r1, [pc, #48]	; (80006ec <svc+0x248>)
 80006ba:	e8bd 4070 	ldmia.w	sp!, {r4, r5, r6, lr}
 80006be:	f000 b84d 	b.w	800075c <printk>
 80006c2:	4b07      	ldr	r3, [pc, #28]	; (80006e0 <svc+0x23c>)
 80006c4:	4620      	mov	r0, r4
 80006c6:	685d      	ldr	r5, [r3, #4]
 80006c8:	689a      	ldr	r2, [r3, #8]
 80006ca:	462b      	mov	r3, r5
 80006cc:	e8bd 4070 	ldmia.w	sp!, {r4, r5, r6, lr}
 80006d0:	4718      	bx	r3
 80006d2:	f06f 0008 	mvn.w	r0, #8
 80006d6:	e8bd 4070 	ldmia.w	sp!, {r4, r5, r6, lr}
 80006da:	f000 bd87 	b.w	80011ec <kprocess_error_current>
 80006de:	bd70      	pop	{r4, r5, r6, pc}
 80006e0:	2000000c 	.word	0x2000000c
 80006e4:	0800049d 	.word	0x0800049d
 80006e8:	08005435 	.word	0x08005435
 80006ec:	08005130 	.word	0x08005130

080006f0 <panic>:
 80006f0:	4805      	ldr	r0, [pc, #20]	; (8000708 <panic+0x18>)
 80006f2:	b508      	push	{r3, lr}
 80006f4:	f000 f832 	bl	800075c <printk>
 80006f8:	f04f 5000 	mov.w	r0, #536870912	; 0x20000000
 80006fc:	f44f 7100 	mov.w	r1, #512	; 0x200
 8000700:	f000 f83e 	bl	8000780 <dump>
 8000704:	e7fe      	b.n	8000704 <panic+0x14>
 8000706:	bf00      	nop
 8000708:	0800513c 	.word	0x0800513c

0800070c <startup>:
 800070c:	4a0e      	ldr	r2, [pc, #56]	; (8000748 <startup+0x3c>)
 800070e:	f04f 5300 	mov.w	r3, #536870912	; 0x20000000
 8000712:	b510      	push	{r4, lr}
 8000714:	605a      	str	r2, [r3, #4]
 8000716:	4c0d      	ldr	r4, [pc, #52]	; (800074c <startup+0x40>)
 8000718:	4a0d      	ldr	r2, [pc, #52]	; (8000750 <startup+0x44>)
 800071a:	2100      	movs	r1, #0
 800071c:	609a      	str	r2, [r3, #8]
 800071e:	4620      	mov	r0, r4
 8000720:	f44f 729c 	mov.w	r2, #312	; 0x138
 8000724:	f004 fb28 	bl	8004d78 <memset>
 8000728:	4b0a      	ldr	r3, [pc, #40]	; (8000754 <startup+0x48>)
 800072a:	6063      	str	r3, [r4, #4]
 800072c:	f000 fa0e 	bl	8000b4c <kirq_init>
 8000730:	f000 f970 	bl	8000a14 <kstdlib_init>
 8000734:	f001 f914 	bl	8001960 <ksystime_init>
 8000738:	f001 fdd0 	bl	80022dc <kobject_init>
 800073c:	e8bd 4010 	ldmia.w	sp!, {r4, lr}
 8000740:	4805      	ldr	r0, [pc, #20]	; (8000758 <startup+0x4c>)
 8000742:	f000 bd75 	b.w	8001230 <kprocess_init>
 8000746:	bf00      	nop
 8000748:	080004a5 	.word	0x080004a5
 800074c:	2000000c 	.word	0x2000000c
 8000750:	080054ec 	.word	0x080054ec
 8000754:	0800049d 	.word	0x0800049d
 8000758:	08005784 	.word	0x08005784

0800075c <printk>:
 800075c:	b40f      	push	{r0, r1, r2, r3}
 800075e:	b507      	push	{r0, r1, r2, lr}
 8000760:	a904      	add	r1, sp, #16
 8000762:	f851 0b04 	ldr.w	r0, [r1], #4
 8000766:	4b05      	ldr	r3, [pc, #20]	; (800077c <printk+0x20>)
 8000768:	9101      	str	r1, [sp, #4]
 800076a:	685a      	ldr	r2, [r3, #4]
 800076c:	689b      	ldr	r3, [r3, #8]
 800076e:	f004 f897 	bl	80048a0 <format>
 8000772:	b003      	add	sp, #12
 8000774:	f85d eb04 	ldr.w	lr, [sp], #4
 8000778:	b004      	add	sp, #16
 800077a:	4770      	bx	lr
 800077c:	2000000c 	.word	0x2000000c

08000780 <dump>:
 8000780:	e92d 41f0 	stmdb	sp!, {r4, r5, r6, r7, r8, lr}
 8000784:	4606      	mov	r6, r0
 8000786:	eb00 0801 	add.w	r8, r0, r1
 800078a:	460f      	mov	r7, r1
 800078c:	4812      	ldr	r0, [pc, #72]	; (80007d8 <dump+0x58>)
 800078e:	4631      	mov	r1, r6
 8000790:	4642      	mov	r2, r8
 8000792:	f7ff ffe3 	bl	800075c <printk>
 8000796:	4634      	mov	r4, r6
 8000798:	4544      	cmp	r4, r8
 800079a:	eba4 0306 	sub.w	r3, r4, r6
 800079e:	d011      	beq.n	80007c4 <dump+0x44>
 80007a0:	f013 050f 	ands.w	r5, r3, #15
 80007a4:	d103      	bne.n	80007ae <dump+0x2e>
 80007a6:	480d      	ldr	r0, [pc, #52]	; (80007dc <dump+0x5c>)
 80007a8:	4621      	mov	r1, r4
 80007aa:	f7ff ffd7 	bl	800075c <printk>
 80007ae:	480c      	ldr	r0, [pc, #48]	; (80007e0 <dump+0x60>)
 80007b0:	f814 1b01 	ldrb.w	r1, [r4], #1
 80007b4:	f7ff ffd2 	bl	800075c <printk>
 80007b8:	2d0f      	cmp	r5, #15
 80007ba:	d1ed      	bne.n	8000798 <dump+0x18>
 80007bc:	4809      	ldr	r0, [pc, #36]	; (80007e4 <dump+0x64>)
 80007be:	f7ff ffcd 	bl	800075c <printk>
 80007c2:	e7e9      	b.n	8000798 <dump+0x18>
 80007c4:	073b      	lsls	r3, r7, #28
 80007c6:	d004      	beq.n	80007d2 <dump+0x52>
 80007c8:	e8bd 41f0 	ldmia.w	sp!, {r4, r5, r6, r7, r8, lr}
 80007cc:	4805      	ldr	r0, [pc, #20]	; (80007e4 <dump+0x64>)
 80007ce:	f7ff bfc5 	b.w	800075c <printk>
 80007d2:	e8bd 81f0 	ldmia.w	sp!, {r4, r5, r6, r7, r8, pc}
 80007d6:	bf00      	nop
 80007d8:	0800514a 	.word	0x0800514a
 80007dc:	08005165 	.word	0x08005165
 80007e0:	0800516e 	.word	0x0800516e
 80007e4:	08005472 	.word	0x08005472

080007e8 <kmalloc_startup>:
 80007e8:	4601      	mov	r1, r0
 80007ea:	466a      	mov	r2, sp
 80007ec:	f04f 5300 	mov.w	r3, #536870912	; 0x20000000
 80007f0:	689b      	ldr	r3, [r3, #8]
 80007f2:	4803      	ldr	r0, [pc, #12]	; (8000800 <kmalloc_startup+0x18>)
 80007f4:	681b      	ldr	r3, [r3, #0]
 80007f6:	f8d0 0120 	ldr.w	r0, [r0, #288]	; 0x120
 80007fa:	68db      	ldr	r3, [r3, #12]
 80007fc:	4718      	bx	r3
 80007fe:	bf00      	nop
 8000800:	2000000c 	.word	0x2000000c

08000804 <kpool_at>:
 8000804:	4b02      	ldr	r3, [pc, #8]	; (8000810 <kpool_at+0xc>)
 8000806:	4601      	mov	r1, r0
 8000808:	f8d3 0120 	ldr.w	r0, [r3, #288]	; 0x120
 800080c:	f000 b968 	b.w	8000ae0 <karray_at_internal>
 8000810:	2000000c 	.word	0x2000000c

08000814 <kmalloc_internal>:
 8000814:	e92d 41f0 	stmdb	sp!, {r4, r5, r6, r7, r8, lr}
 8000818:	4680      	mov	r8, r0
 800081a:	2500      	movs	r5, #0
 800081c:	4e11      	ldr	r6, [pc, #68]	; (8000864 <kmalloc_internal+0x50>)
 800081e:	2400      	movs	r4, #0
 8000820:	f8d6 0120 	ldr.w	r0, [r6, #288]	; 0x120
 8000824:	f000 f966 	bl	8000af4 <karray_size_internal>
 8000828:	4285      	cmp	r5, r0
 800082a:	d218      	bcs.n	800085e <kmalloc_internal+0x4a>
 800082c:	4628      	mov	r0, r5
 800082e:	f7ff ffe9 	bl	8000804 <kpool_at>
 8000832:	f04f 5300 	mov.w	r3, #536870912	; 0x20000000
 8000836:	689b      	ldr	r3, [r3, #8]
 8000838:	6034      	str	r4, [r6, #0]
 800083a:	681b      	ldr	r3, [r3, #0]
 800083c:	4607      	mov	r7, r0
 800083e:	4628      	mov	r0, r5
 8000840:	68dc      	ldr	r4, [r3, #12]
 8000842:	f7ff ffdf 	bl	8000804 <kpool_at>
 8000846:	3008      	adds	r0, #8
 8000848:	b90d      	cbnz	r5, 800084e <kmalloc_internal+0x3a>
 800084a:	466a      	mov	r2, sp
 800084c:	e002      	b.n	8000854 <kmalloc_internal+0x40>
 800084e:	e897 000c 	ldmia.w	r7, {r2, r3}
 8000852:	441a      	add	r2, r3
 8000854:	4641      	mov	r1, r8
 8000856:	47a0      	blx	r4
 8000858:	b910      	cbnz	r0, 8000860 <kmalloc_internal+0x4c>
 800085a:	3501      	adds	r5, #1
 800085c:	e7de      	b.n	800081c <kmalloc_internal+0x8>
 800085e:	4620      	mov	r0, r4
 8000860:	e8bd 81f0 	ldmia.w	sp!, {r4, r5, r6, r7, r8, pc}
 8000864:	2000000c 	.word	0x2000000c

08000868 <kpool_idx>:
 8000868:	b538      	push	{r3, r4, r5, lr}
 800086a:	4605      	mov	r5, r0
 800086c:	2400      	movs	r4, #0
 800086e:	4b0c      	ldr	r3, [pc, #48]	; (80008a0 <kpool_idx+0x38>)
 8000870:	f8d3 0120 	ldr.w	r0, [r3, #288]	; 0x120
 8000874:	f000 f93e 	bl	8000af4 <karray_size_internal>
 8000878:	4284      	cmp	r4, r0
 800087a:	d20b      	bcs.n	8000894 <kpool_idx+0x2c>
 800087c:	4620      	mov	r0, r4
 800087e:	f7ff ffc1 	bl	8000804 <kpool_at>
 8000882:	6802      	ldr	r2, [r0, #0]
 8000884:	42aa      	cmp	r2, r5
 8000886:	d203      	bcs.n	8000890 <kpool_idx+0x28>
 8000888:	6843      	ldr	r3, [r0, #4]
 800088a:	4413      	add	r3, r2
 800088c:	42ab      	cmp	r3, r5
 800088e:	d804      	bhi.n	800089a <kpool_idx+0x32>
 8000890:	3401      	adds	r4, #1
 8000892:	e7ec      	b.n	800086e <kpool_idx+0x6>
 8000894:	f04f 30ff 	mov.w	r0, #4294967295
 8000898:	bd38      	pop	{r3, r4, r5, pc}
 800089a:	4620      	mov	r0, r4
 800089c:	bd38      	pop	{r3, r4, r5, pc}
 800089e:	bf00      	nop
 80008a0:	2000000c 	.word	0x2000000c

080008a4 <krealloc_internal>:
 80008a4:	e92d 43f8 	stmdb	sp!, {r3, r4, r5, r6, r7, r8, r9, lr}
 80008a8:	4688      	mov	r8, r1
 80008aa:	4606      	mov	r6, r0
 80008ac:	b920      	cbnz	r0, 80008b8 <krealloc_internal+0x14>
 80008ae:	e8bd 43f8 	ldmia.w	sp!, {r3, r4, r5, r6, r7, r8, r9, lr}
 80008b2:	4608      	mov	r0, r1
 80008b4:	f7ff bfae 	b.w	8000814 <kmalloc_internal>
 80008b8:	f7ff ffd6 	bl	8000868 <kpool_idx>
 80008bc:	1e07      	subs	r7, r0, #0
 80008be:	da02      	bge.n	80008c6 <krealloc_internal+0x22>
 80008c0:	2000      	movs	r0, #0
 80008c2:	e8bd 83f8 	ldmia.w	sp!, {r3, r4, r5, r6, r7, r8, r9, pc}
 80008c6:	f7ff ff9d 	bl	8000804 <kpool_at>
 80008ca:	f04f 5300 	mov.w	r3, #536870912	; 0x20000000
 80008ce:	689b      	ldr	r3, [r3, #8]
 80008d0:	4602      	mov	r2, r0
 80008d2:	681b      	ldr	r3, [r3, #0]
 80008d4:	3008      	adds	r0, #8
 80008d6:	695c      	ldr	r4, [r3, #20]
 80008d8:	b90f      	cbnz	r7, 80008de <krealloc_internal+0x3a>
 80008da:	466b      	mov	r3, sp
 80008dc:	e002      	b.n	80008e4 <krealloc_internal+0x40>
 80008de:	e892 000a 	ldmia.w	r2, {r1, r3}
 80008e2:	440b      	add	r3, r1
 80008e4:	4631      	mov	r1, r6
 80008e6:	4642      	mov	r2, r8
 80008e8:	47a0      	blx	r4
 80008ea:	2800      	cmp	r0, #0
 80008ec:	d13e      	bne.n	800096c <krealloc_internal+0xc8>
 80008ee:	4605      	mov	r5, r0
 80008f0:	4c1f      	ldr	r4, [pc, #124]	; (8000970 <krealloc_internal+0xcc>)
 80008f2:	f8d4 0120 	ldr.w	r0, [r4, #288]	; 0x120
 80008f6:	f000 f8fd 	bl	8000af4 <karray_size_internal>
 80008fa:	4285      	cmp	r5, r0
 80008fc:	d2e0      	bcs.n	80008c0 <krealloc_internal+0x1c>
 80008fe:	42bd      	cmp	r5, r7
 8000900:	d032      	beq.n	8000968 <krealloc_internal+0xc4>
 8000902:	2300      	movs	r3, #0
 8000904:	6023      	str	r3, [r4, #0]
 8000906:	4628      	mov	r0, r5
 8000908:	f7ff ff7c 	bl	8000804 <kpool_at>
 800090c:	f04f 5300 	mov.w	r3, #536870912	; 0x20000000
 8000910:	689b      	ldr	r3, [r3, #8]
 8000912:	4681      	mov	r9, r0
 8000914:	681b      	ldr	r3, [r3, #0]
 8000916:	4628      	mov	r0, r5
 8000918:	68dc      	ldr	r4, [r3, #12]
 800091a:	f7ff ff73 	bl	8000804 <kpool_at>
 800091e:	3008      	adds	r0, #8
 8000920:	b90d      	cbnz	r5, 8000926 <krealloc_internal+0x82>
 8000922:	466a      	mov	r2, sp
 8000924:	e002      	b.n	800092c <krealloc_internal+0x88>
 8000926:	e899 000c 	ldmia.w	r9, {r2, r3}
 800092a:	441a      	add	r2, r3
 800092c:	4641      	mov	r1, r8
 800092e:	47a0      	blx	r4
 8000930:	4604      	mov	r4, r0
 8000932:	b1c8      	cbz	r0, 8000968 <krealloc_internal+0xc4>
 8000934:	f04f 5500 	mov.w	r5, #536870912	; 0x20000000
 8000938:	68ab      	ldr	r3, [r5, #8]
 800093a:	4631      	mov	r1, r6
 800093c:	681b      	ldr	r3, [r3, #0]
 800093e:	f109 0008 	add.w	r0, r9, #8
 8000942:	691b      	ldr	r3, [r3, #16]
 8000944:	4798      	blx	r3
 8000946:	4631      	mov	r1, r6
 8000948:	4602      	mov	r2, r0
 800094a:	4620      	mov	r0, r4
 800094c:	f004 f93a 	bl	8004bc4 <memcpy>
 8000950:	68ab      	ldr	r3, [r5, #8]
 8000952:	4638      	mov	r0, r7
 8000954:	681b      	ldr	r3, [r3, #0]
 8000956:	699d      	ldr	r5, [r3, #24]
 8000958:	f7ff ff54 	bl	8000804 <kpool_at>
 800095c:	4631      	mov	r1, r6
 800095e:	3008      	adds	r0, #8
 8000960:	47a8      	blx	r5
 8000962:	4620      	mov	r0, r4
 8000964:	e8bd 83f8 	ldmia.w	sp!, {r3, r4, r5, r6, r7, r8, r9, pc}
 8000968:	3501      	adds	r5, #1
 800096a:	e7c1      	b.n	80008f0 <krealloc_internal+0x4c>
 800096c:	e8bd 83f8 	ldmia.w	sp!, {r3, r4, r5, r6, r7, r8, r9, pc}
 8000970:	2000000c 	.word	0x2000000c

08000974 <kfree_internal>:
 8000974:	b570      	push	{r4, r5, r6, lr}
 8000976:	4605      	mov	r5, r0
 8000978:	b180      	cbz	r0, 800099c <kfree_internal+0x28>
 800097a:	f7ff ff75 	bl	8000868 <kpool_idx>
 800097e:	2800      	cmp	r0, #0
 8000980:	db0c      	blt.n	800099c <kfree_internal+0x28>
 8000982:	f04f 5300 	mov.w	r3, #536870912	; 0x20000000
 8000986:	689b      	ldr	r3, [r3, #8]
 8000988:	681b      	ldr	r3, [r3, #0]
 800098a:	699c      	ldr	r4, [r3, #24]
 800098c:	f7ff ff3a 	bl	8000804 <kpool_at>
 8000990:	4629      	mov	r1, r5
 8000992:	4623      	mov	r3, r4
 8000994:	e8bd 4070 	ldmia.w	sp!, {r4, r5, r6, lr}
 8000998:	3008      	adds	r0, #8
 800099a:	4718      	bx	r3
 800099c:	bd70      	pop	{r4, r5, r6, pc}
 800099e:	0000      	movs	r0, r0

080009a0 <kpool_stat>:
 80009a0:	b5f8      	push	{r3, r4, r5, r6, r7, lr}
 80009a2:	4b0d      	ldr	r3, [pc, #52]	; (80009d8 <kpool_stat+0x38>)
 80009a4:	f04f 5400 	mov.w	r4, #536870912	; 0x20000000
 80009a8:	2200      	movs	r2, #0
 80009aa:	6825      	ldr	r5, [r4, #0]
 80009ac:	6023      	str	r3, [r4, #0]
 80009ae:	601a      	str	r2, [r3, #0]
 80009b0:	4607      	mov	r7, r0
 80009b2:	460e      	mov	r6, r1
 80009b4:	f7ff ff26 	bl	8000804 <kpool_at>
 80009b8:	68a2      	ldr	r2, [r4, #8]
 80009ba:	4603      	mov	r3, r0
 80009bc:	6812      	ldr	r2, [r2, #0]
 80009be:	3008      	adds	r0, #8
 80009c0:	6a14      	ldr	r4, [r2, #32]
 80009c2:	b90f      	cbnz	r7, 80009c8 <kpool_stat+0x28>
 80009c4:	466a      	mov	r2, sp
 80009c6:	e001      	b.n	80009cc <kpool_stat+0x2c>
 80009c8:	cb0c      	ldmia	r3, {r2, r3}
 80009ca:	441a      	add	r2, r3
 80009cc:	4631      	mov	r1, r6
 80009ce:	47a0      	blx	r4
 80009d0:	f04f 5300 	mov.w	r3, #536870912	; 0x20000000
 80009d4:	601d      	str	r5, [r3, #0]
 80009d6:	bdf8      	pop	{r3, r4, r5, r6, r7, pc}
 80009d8:	2000000c 	.word	0x2000000c

080009dc <kmalloc>:
 80009dc:	b538      	push	{r3, r4, r5, lr}
 80009de:	f04f 5400 	mov.w	r4, #536870912	; 0x20000000
 80009e2:	4b04      	ldr	r3, [pc, #16]	; (80009f4 <kmalloc+0x18>)
 80009e4:	6825      	ldr	r5, [r4, #0]
 80009e6:	2200      	movs	r2, #0
 80009e8:	6023      	str	r3, [r4, #0]
 80009ea:	601a      	str	r2, [r3, #0]
 80009ec:	f7ff ff12 	bl	8000814 <kmalloc_internal>
 80009f0:	6025      	str	r5, [r4, #0]
 80009f2:	bd38      	pop	{r3, r4, r5, pc}
 80009f4:	2000000c 	.word	0x2000000c

080009f8 <kfree>:
 80009f8:	b538      	push	{r3, r4, r5, lr}
 80009fa:	f04f 5400 	mov.w	r4, #536870912	; 0x20000000
 80009fe:	4b04      	ldr	r3, [pc, #16]	; (8000a10 <kfree+0x18>)
 8000a00:	6825      	ldr	r5, [r4, #0]
 8000a02:	2200      	movs	r2, #0
 8000a04:	6023      	str	r3, [r4, #0]
 8000a06:	601a      	str	r2, [r3, #0]
 8000a08:	f7ff ffb4 	bl	8000974 <kfree_internal>
 8000a0c:	6025      	str	r5, [r4, #0]
 8000a0e:	bd38      	pop	{r3, r4, r5, pc}
 8000a10:	2000000c 	.word	0x2000000c

08000a14 <kstdlib_init>:
 8000a14:	e92d 41ff 	stmdb	sp!, {r0, r1, r2, r3, r4, r5, r6, r7, r8, lr}
 8000a18:	4f17      	ldr	r7, [pc, #92]	; (8000a78 <kstdlib_init+0x64>)
 8000a1a:	4c18      	ldr	r4, [pc, #96]	; (8000a7c <kstdlib_init+0x68>)
 8000a1c:	ae01      	add	r6, sp, #4
 8000a1e:	4630      	mov	r0, r6
 8000a20:	4639      	mov	r1, r7
 8000a22:	f001 fdd1 	bl	80025c8 <pool_init>
 8000a26:	f04f 5500 	mov.w	r5, #536870912	; 0x20000000
 8000a2a:	f8c4 6120 	str.w	r6, [r4, #288]	; 0x120
 8000a2e:	2300      	movs	r3, #0
 8000a30:	602c      	str	r4, [r5, #0]
 8000a32:	6023      	str	r3, [r4, #0]
 8000a34:	68ab      	ldr	r3, [r5, #8]
 8000a36:	f8df 8048 	ldr.w	r8, [pc, #72]	; 8000a80 <kstdlib_init+0x6c>
 8000a3a:	68db      	ldr	r3, [r3, #12]
 8000a3c:	4641      	mov	r1, r8
 8000a3e:	f8d3 c000 	ldr.w	ip, [r3]
 8000a42:	2214      	movs	r2, #20
 8000a44:	4668      	mov	r0, sp
 8000a46:	2301      	movs	r3, #1
 8000a48:	47e0      	blx	ip
 8000a4a:	68ab      	ldr	r3, [r5, #8]
 8000a4c:	4641      	mov	r1, r8
 8000a4e:	68db      	ldr	r3, [r3, #12]
 8000a50:	4668      	mov	r0, sp
 8000a52:	691b      	ldr	r3, [r3, #16]
 8000a54:	4798      	blx	r3
 8000a56:	9b00      	ldr	r3, [sp, #0]
 8000a58:	4605      	mov	r5, r0
 8000a5a:	f8c4 3120 	str.w	r3, [r4, #288]	; 0x120
 8000a5e:	4631      	mov	r1, r6
 8000a60:	220c      	movs	r2, #12
 8000a62:	3008      	adds	r0, #8
 8000a64:	f004 f8ae 	bl	8004bc4 <memcpy>
 8000a68:	f641 63bc 	movw	r3, #7868	; 0x1ebc
 8000a6c:	602f      	str	r7, [r5, #0]
 8000a6e:	606b      	str	r3, [r5, #4]
 8000a70:	b004      	add	sp, #16
 8000a72:	e8bd 81f0 	ldmia.w	sp!, {r4, r5, r6, r7, r8, pc}
 8000a76:	bf00      	nop
 8000a78:	20000144 	.word	0x20000144
 8000a7c:	2000000c 	.word	0x2000000c
 8000a80:	08005174 	.word	0x08005174

08000a84 <kstdlib_add_pool>:
 8000a84:	b570      	push	{r4, r5, r6, lr}
 8000a86:	4604      	mov	r4, r0
 8000a88:	460e      	mov	r6, r1
 8000a8a:	2500      	movs	r5, #0
 8000a8c:	4b12      	ldr	r3, [pc, #72]	; (8000ad8 <kstdlib_add_pool+0x54>)
 8000a8e:	f8d3 0120 	ldr.w	r0, [r3, #288]	; 0x120
 8000a92:	f000 f82f 	bl	8000af4 <karray_size_internal>
 8000a96:	4285      	cmp	r5, r0
 8000a98:	d212      	bcs.n	8000ac0 <kstdlib_add_pool+0x3c>
 8000a9a:	4628      	mov	r0, r5
 8000a9c:	f7ff feb2 	bl	8000804 <kpool_at>
 8000aa0:	6801      	ldr	r1, [r0, #0]
 8000aa2:	428c      	cmp	r4, r1
 8000aa4:	d30a      	bcc.n	8000abc <kstdlib_add_pool+0x38>
 8000aa6:	6843      	ldr	r3, [r0, #4]
 8000aa8:	19a2      	adds	r2, r4, r6
 8000aaa:	440b      	add	r3, r1
 8000aac:	429a      	cmp	r2, r3
 8000aae:	d805      	bhi.n	8000abc <kstdlib_add_pool+0x38>
 8000ab0:	f06f 0005 	mvn.w	r0, #5
 8000ab4:	e8bd 4070 	ldmia.w	sp!, {r4, r5, r6, lr}
 8000ab8:	f000 bb98 	b.w	80011ec <kprocess_error_current>
 8000abc:	3501      	adds	r5, #1
 8000abe:	e7e5      	b.n	8000a8c <kstdlib_add_pool+0x8>
 8000ac0:	b672      	cpsid	i
 8000ac2:	4806      	ldr	r0, [pc, #24]	; (8000adc <kstdlib_add_pool+0x58>)
 8000ac4:	f000 f820 	bl	8000b08 <karray_append>
 8000ac8:	4621      	mov	r1, r4
 8000aca:	e880 0050 	stmia.w	r0, {r4, r6}
 8000ace:	3008      	adds	r0, #8
 8000ad0:	f001 fd7a 	bl	80025c8 <pool_init>
 8000ad4:	b662      	cpsie	i
 8000ad6:	bd70      	pop	{r4, r5, r6, pc}
 8000ad8:	2000000c 	.word	0x2000000c
 8000adc:	2000012c 	.word	0x2000012c

08000ae0 <karray_at_internal>:
 8000ae0:	f04f 5300 	mov.w	r3, #536870912	; 0x20000000
 8000ae4:	689b      	ldr	r3, [r3, #8]
 8000ae6:	460a      	mov	r2, r1
 8000ae8:	68db      	ldr	r3, [r3, #12]
 8000aea:	4901      	ldr	r1, [pc, #4]	; (8000af0 <karray_at_internal+0x10>)
 8000aec:	689b      	ldr	r3, [r3, #8]
 8000aee:	4718      	bx	r3
 8000af0:	08005180 	.word	0x08005180

08000af4 <karray_size_internal>:
 8000af4:	f04f 5300 	mov.w	r3, #536870912	; 0x20000000
 8000af8:	689b      	ldr	r3, [r3, #8]
 8000afa:	4902      	ldr	r1, [pc, #8]	; (8000b04 <karray_size_internal+0x10>)
 8000afc:	68db      	ldr	r3, [r3, #12]
 8000afe:	68db      	ldr	r3, [r3, #12]
 8000b00:	4718      	bx	r3
 8000b02:	bf00      	nop
 8000b04:	08005180 	.word	0x08005180

08000b08 <karray_append>:
 8000b08:	b538      	push	{r3, r4, r5, lr}
 8000b0a:	4b07      	ldr	r3, [pc, #28]	; (8000b28 <karray_append+0x20>)
 8000b0c:	f04f 5400 	mov.w	r4, #536870912	; 0x20000000
 8000b10:	2200      	movs	r2, #0
 8000b12:	6825      	ldr	r5, [r4, #0]
 8000b14:	6023      	str	r3, [r4, #0]
 8000b16:	601a      	str	r2, [r3, #0]
 8000b18:	68a3      	ldr	r3, [r4, #8]
 8000b1a:	4904      	ldr	r1, [pc, #16]	; (8000b2c <karray_append+0x24>)
 8000b1c:	68db      	ldr	r3, [r3, #12]
 8000b1e:	691b      	ldr	r3, [r3, #16]
 8000b20:	4798      	blx	r3
 8000b22:	6025      	str	r5, [r4, #0]
 8000b24:	bd38      	pop	{r3, r4, r5, pc}
 8000b26:	bf00      	nop
 8000b28:	2000000c 	.word	0x2000000c
 8000b2c:	08005180 	.word	0x08005180

08000b30 <kirq_stub>:
 8000b30:	b508      	push	{r3, lr}
 8000b32:	4601      	mov	r1, r0
 8000b34:	4804      	ldr	r0, [pc, #16]	; (8000b48 <kirq_stub+0x18>)
 8000b36:	f7ff fe11 	bl	800075c <printk>
 8000b3a:	e8bd 4008 	ldmia.w	sp!, {r3, lr}
 8000b3e:	f06f 000a 	mvn.w	r0, #10
 8000b42:	f000 bb53 	b.w	80011ec <kprocess_error_current>
 8000b46:	bf00      	nop
 8000b48:	0800518c 	.word	0x0800518c

08000b4c <kirq_init>:
 8000b4c:	4b05      	ldr	r3, [pc, #20]	; (8000b64 <kirq_init+0x18>)
 8000b4e:	4a06      	ldr	r2, [pc, #24]	; (8000b68 <kirq_init+0x1c>)
 8000b50:	f843 2f04 	str.w	r2, [r3, #4]!
 8000b54:	4a05      	ldr	r2, [pc, #20]	; (8000b6c <kirq_init+0x20>)
 8000b56:	4293      	cmp	r3, r2
 8000b58:	d1f9      	bne.n	8000b4e <kirq_init+0x2>
 8000b5a:	4b05      	ldr	r3, [pc, #20]	; (8000b70 <kirq_init+0x24>)
 8000b5c:	f04f 32ff 	mov.w	r2, #4294967295
 8000b60:	61da      	str	r2, [r3, #28]
 8000b62:	4770      	bx	lr
 8000b64:	20000028 	.word	0x20000028
 8000b68:	080051b0 	.word	0x080051b0
 8000b6c:	20000108 	.word	0x20000108
 8000b70:	2000000c 	.word	0x2000000c

08000b74 <kirq_enter>:
 8000b74:	b538      	push	{r3, r4, r5, lr}
 8000b76:	4603      	mov	r3, r0
 8000b78:	4c05      	ldr	r4, [pc, #20]	; (8000b90 <kirq_enter+0x1c>)
 8000b7a:	3308      	adds	r3, #8
 8000b7c:	f854 3023 	ldr.w	r3, [r4, r3, lsl #2]
 8000b80:	69e5      	ldr	r5, [r4, #28]
 8000b82:	681a      	ldr	r2, [r3, #0]
 8000b84:	61e0      	str	r0, [r4, #28]
 8000b86:	6859      	ldr	r1, [r3, #4]
 8000b88:	4790      	blx	r2
 8000b8a:	61e5      	str	r5, [r4, #28]
 8000b8c:	bd38      	pop	{r3, r4, r5, pc}
 8000b8e:	bf00      	nop
 8000b90:	2000000c 	.word	0x2000000c

08000b94 <kirq_register>:
 8000b94:	2837      	cmp	r0, #55	; 0x37
 8000b96:	e92d 41f0 	stmdb	sp!, {r4, r5, r6, r7, r8, lr}
 8000b9a:	4688      	mov	r8, r1
 8000b9c:	4617      	mov	r7, r2
 8000b9e:	dd02      	ble.n	8000ba6 <kirq_register+0x12>
 8000ba0:	f06f 000b 	mvn.w	r0, #11
 8000ba4:	e015      	b.n	8000bd2 <kirq_register+0x3e>
 8000ba6:	0080      	lsls	r0, r0, #2
 8000ba8:	f100 5400 	add.w	r4, r0, #536870912	; 0x20000000
 8000bac:	340c      	adds	r4, #12
 8000bae:	6a26      	ldr	r6, [r4, #32]
 8000bb0:	4b0e      	ldr	r3, [pc, #56]	; (8000bec <kirq_register+0x58>)
 8000bb2:	429e      	cmp	r6, r3
 8000bb4:	d002      	beq.n	8000bbc <kirq_register+0x28>
 8000bb6:	f06f 0005 	mvn.w	r0, #5
 8000bba:	e00a      	b.n	8000bd2 <kirq_register+0x3e>
 8000bbc:	b672      	cpsid	i
 8000bbe:	200c      	movs	r0, #12
 8000bc0:	f7ff ff0c 	bl	80009dc <kmalloc>
 8000bc4:	4605      	mov	r5, r0
 8000bc6:	6220      	str	r0, [r4, #32]
 8000bc8:	b662      	cpsie	i
 8000bca:	b930      	cbnz	r0, 8000bda <kirq_register+0x46>
 8000bcc:	6226      	str	r6, [r4, #32]
 8000bce:	f06f 00c9 	mvn.w	r0, #201	; 0xc9
 8000bd2:	e8bd 41f0 	ldmia.w	sp!, {r4, r5, r6, r7, r8, lr}
 8000bd6:	f000 bb09 	b.w	80011ec <kprocess_error_current>
 8000bda:	f8c0 8000 	str.w	r8, [r0]
 8000bde:	6047      	str	r7, [r0, #4]
 8000be0:	f000 f9ae 	bl	8000f40 <kprocess_get_current>
 8000be4:	60a8      	str	r0, [r5, #8]
 8000be6:	e8bd 81f0 	ldmia.w	sp!, {r4, r5, r6, r7, r8, pc}
 8000bea:	bf00      	nop
 8000bec:	080051b0 	.word	0x080051b0

08000bf0 <kirq_unregister>:
 8000bf0:	0080      	lsls	r0, r0, #2
 8000bf2:	b538      	push	{r3, r4, r5, lr}
 8000bf4:	f100 5400 	add.w	r4, r0, #536870912	; 0x20000000
 8000bf8:	340c      	adds	r4, #12
 8000bfa:	6a23      	ldr	r3, [r4, #32]
 8000bfc:	689d      	ldr	r5, [r3, #8]
 8000bfe:	f000 f99f 	bl	8000f40 <kprocess_get_current>
 8000c02:	4285      	cmp	r5, r0
 8000c04:	d107      	bne.n	8000c16 <kirq_unregister+0x26>
 8000c06:	b672      	cpsid	i
 8000c08:	6a20      	ldr	r0, [r4, #32]
 8000c0a:	f7ff fef5 	bl	80009f8 <kfree>
 8000c0e:	b662      	cpsie	i
 8000c10:	4b04      	ldr	r3, [pc, #16]	; (8000c24 <kirq_unregister+0x34>)
 8000c12:	6223      	str	r3, [r4, #32]
 8000c14:	bd38      	pop	{r3, r4, r5, pc}
 8000c16:	f06f 000c 	mvn.w	r0, #12
 8000c1a:	e8bd 4038 	ldmia.w	sp!, {r3, r4, r5, lr}
 8000c1e:	f000 bae5 	b.w	80011ec <kprocess_error_current>
 8000c22:	bf00      	nop
 8000c24:	080051b0 	.word	0x080051b0

08000c28 <dlist_add_tail>:
 8000c28:	6803      	ldr	r3, [r0, #0]
 8000c2a:	b91b      	cbnz	r3, 8000c34 <dlist_add_tail+0xc>
 8000c2c:	6001      	str	r1, [r0, #0]
 8000c2e:	6009      	str	r1, [r1, #0]
 8000c30:	6049      	str	r1, [r1, #4]
 8000c32:	4770      	bx	lr
 8000c34:	604b      	str	r3, [r1, #4]
 8000c36:	6803      	ldr	r3, [r0, #0]
 8000c38:	681b      	ldr	r3, [r3, #0]
 8000c3a:	600b      	str	r3, [r1, #0]
 8000c3c:	6803      	ldr	r3, [r0, #0]
 8000c3e:	681b      	ldr	r3, [r3, #0]
 8000c40:	6059      	str	r1, [r3, #4]
 8000c42:	6803      	ldr	r3, [r0, #0]
 8000c44:	6019      	str	r1, [r3, #0]
 8000c46:	4770      	bx	lr

08000c48 <dlist_remove_head>:
 8000c48:	6803      	ldr	r3, [r0, #0]
 8000c4a:	685a      	ldr	r2, [r3, #4]
 8000c4c:	429a      	cmp	r2, r3
 8000c4e:	bf17      	itett	ne
 8000c50:	681b      	ldrne	r3, [r3, #0]
 8000c52:	2300      	moveq	r3, #0
 8000c54:	6013      	strne	r3, [r2, #0]
 8000c56:	6803      	ldrne	r3, [r0, #0]
 8000c58:	bf1f      	itttt	ne
 8000c5a:	685a      	ldrne	r2, [r3, #4]
 8000c5c:	681b      	ldrne	r3, [r3, #0]
 8000c5e:	605a      	strne	r2, [r3, #4]
 8000c60:	6803      	ldrne	r3, [r0, #0]
 8000c62:	bf18      	it	ne
 8000c64:	685b      	ldrne	r3, [r3, #4]
 8000c66:	6003      	str	r3, [r0, #0]
 8000c68:	4770      	bx	lr

08000c6a <dlist_remove>:
 8000c6a:	b538      	push	{r3, r4, r5, lr}
 8000c6c:	6805      	ldr	r5, [r0, #0]
 8000c6e:	4604      	mov	r4, r0
 8000c70:	428d      	cmp	r5, r1
 8000c72:	d103      	bne.n	8000c7c <dlist_remove+0x12>
 8000c74:	e8bd 4038 	ldmia.w	sp!, {r3, r4, r5, lr}
 8000c78:	f7ff bfe6 	b.w	8000c48 <dlist_remove_head>
 8000c7c:	6001      	str	r1, [r0, #0]
 8000c7e:	f7ff ffe3 	bl	8000c48 <dlist_remove_head>
 8000c82:	6025      	str	r5, [r4, #0]
 8000c84:	bd38      	pop	{r3, r4, r5, pc}
 8000c86:	0000      	movs	r0, r0

08000c88 <switch_to_process>:
 8000c88:	4b04      	ldr	r3, [pc, #16]	; (8000c9c <switch_to_process+0x14>)
 8000c8a:	6118      	str	r0, [r3, #16]
 8000c8c:	b118      	cbz	r0, 8000c96 <switch_to_process+0xe>
 8000c8e:	6882      	ldr	r2, [r0, #8]
 8000c90:	f04f 5300 	mov.w	r3, #536870912	; 0x20000000
 8000c94:	601a      	str	r2, [r3, #0]
 8000c96:	f7ff badf 	b.w	8000258 <pend_switch_context>
 8000c9a:	bf00      	nop
 8000c9c:	2000000c 	.word	0x2000000c

08000ca0 <dlist_enum>:
 8000ca0:	4603      	mov	r3, r0
 8000ca2:	7a00      	ldrb	r0, [r0, #8]
 8000ca4:	b148      	cbz	r0, 8000cba <dlist_enum+0x1a>
 8000ca6:	685a      	ldr	r2, [r3, #4]
 8000ca8:	600a      	str	r2, [r1, #0]
 8000caa:	685a      	ldr	r2, [r3, #4]
 8000cac:	6819      	ldr	r1, [r3, #0]
 8000cae:	6852      	ldr	r2, [r2, #4]
 8000cb0:	605a      	str	r2, [r3, #4]
 8000cb2:	1a52      	subs	r2, r2, r1
 8000cb4:	bf18      	it	ne
 8000cb6:	2201      	movne	r2, #1
 8000cb8:	721a      	strb	r2, [r3, #8]
 8000cba:	4770      	bx	lr

08000cbc <dlist_add_head.constprop.4>:
 8000cbc:	4b08      	ldr	r3, [pc, #32]	; (8000ce0 <dlist_add_head.constprop.4+0x24>)
 8000cbe:	681a      	ldr	r2, [r3, #0]
 8000cc0:	b912      	cbnz	r2, 8000cc8 <dlist_add_head.constprop.4+0xc>
 8000cc2:	6000      	str	r0, [r0, #0]
 8000cc4:	6040      	str	r0, [r0, #4]
 8000cc6:	e008      	b.n	8000cda <dlist_add_head.constprop.4+0x1e>
 8000cc8:	6042      	str	r2, [r0, #4]
 8000cca:	681a      	ldr	r2, [r3, #0]
 8000ccc:	6812      	ldr	r2, [r2, #0]
 8000cce:	6002      	str	r2, [r0, #0]
 8000cd0:	681a      	ldr	r2, [r3, #0]
 8000cd2:	6812      	ldr	r2, [r2, #0]
 8000cd4:	6050      	str	r0, [r2, #4]
 8000cd6:	681b      	ldr	r3, [r3, #0]
 8000cd8:	6018      	str	r0, [r3, #0]
 8000cda:	4b01      	ldr	r3, [pc, #4]	; (8000ce0 <dlist_add_head.constprop.4+0x24>)
 8000cdc:	6018      	str	r0, [r3, #0]
 8000cde:	4770      	bx	lr
 8000ce0:	20000020 	.word	0x20000020

08000ce4 <kprocess_add_to_active_list>:
 8000ce4:	b530      	push	{r4, r5, lr}
 8000ce6:	4604      	mov	r4, r0
 8000ce8:	b085      	sub	sp, #20
 8000cea:	3044      	adds	r0, #68	; 0x44
 8000cec:	f000 fc6a 	bl	80015c4 <ksystime_get_uptime_internal>
 8000cf0:	4822      	ldr	r0, [pc, #136]	; (8000d7c <kprocess_add_to_active_list+0x98>)
 8000cf2:	4621      	mov	r1, r4
 8000cf4:	f7ff ffb9 	bl	8000c6a <dlist_remove>
 8000cf8:	4b21      	ldr	r3, [pc, #132]	; (8000d80 <kprocess_add_to_active_list+0x9c>)
 8000cfa:	695d      	ldr	r5, [r3, #20]
 8000cfc:	b935      	cbnz	r5, 8000d0c <kprocess_add_to_active_list+0x28>
 8000cfe:	4620      	mov	r0, r4
 8000d00:	f7ff ffdc 	bl	8000cbc <dlist_add_head.constprop.4>
 8000d04:	4620      	mov	r0, r4
 8000d06:	f7ff ffbf 	bl	8000c88 <switch_to_process>
 8000d0a:	e035      	b.n	8000d78 <kprocess_add_to_active_list+0x94>
 8000d0c:	69a2      	ldr	r2, [r4, #24]
 8000d0e:	69ab      	ldr	r3, [r5, #24]
 8000d10:	429a      	cmp	r2, r3
 8000d12:	d209      	bcs.n	8000d28 <kprocess_add_to_active_list+0x44>
 8000d14:	481b      	ldr	r0, [pc, #108]	; (8000d84 <kprocess_add_to_active_list+0xa0>)
 8000d16:	f7ff ff97 	bl	8000c48 <dlist_remove_head>
 8000d1a:	4620      	mov	r0, r4
 8000d1c:	f7ff ffce 	bl	8000cbc <dlist_add_head.constprop.4>
 8000d20:	4620      	mov	r0, r4
 8000d22:	f7ff ffb1 	bl	8000c88 <switch_to_process>
 8000d26:	462c      	mov	r4, r5
 8000d28:	4b16      	ldr	r3, [pc, #88]	; (8000d84 <kprocess_add_to_active_list+0xa0>)
 8000d2a:	681a      	ldr	r2, [r3, #0]
 8000d2c:	9201      	str	r2, [sp, #4]
 8000d2e:	681a      	ldr	r2, [r3, #0]
 8000d30:	9202      	str	r2, [sp, #8]
 8000d32:	681b      	ldr	r3, [r3, #0]
 8000d34:	3300      	adds	r3, #0
 8000d36:	bf18      	it	ne
 8000d38:	2301      	movne	r3, #1
 8000d3a:	f88d 300c 	strb.w	r3, [sp, #12]
 8000d3e:	a801      	add	r0, sp, #4
 8000d40:	4669      	mov	r1, sp
 8000d42:	f7ff ffad 	bl	8000ca0 <dlist_enum>
 8000d46:	b198      	cbz	r0, 8000d70 <kprocess_add_to_active_list+0x8c>
 8000d48:	9b00      	ldr	r3, [sp, #0]
 8000d4a:	69a1      	ldr	r1, [r4, #24]
 8000d4c:	699a      	ldr	r2, [r3, #24]
 8000d4e:	4291      	cmp	r1, r2
 8000d50:	d2f5      	bcs.n	8000d3e <kprocess_add_to_active_list+0x5a>
 8000d52:	4a0c      	ldr	r2, [pc, #48]	; (8000d84 <kprocess_add_to_active_list+0xa0>)
 8000d54:	6812      	ldr	r2, [r2, #0]
 8000d56:	4293      	cmp	r3, r2
 8000d58:	d103      	bne.n	8000d62 <kprocess_add_to_active_list+0x7e>
 8000d5a:	4620      	mov	r0, r4
 8000d5c:	f7ff ffae 	bl	8000cbc <dlist_add_head.constprop.4>
 8000d60:	e00a      	b.n	8000d78 <kprocess_add_to_active_list+0x94>
 8000d62:	681a      	ldr	r2, [r3, #0]
 8000d64:	6063      	str	r3, [r4, #4]
 8000d66:	6022      	str	r2, [r4, #0]
 8000d68:	681a      	ldr	r2, [r3, #0]
 8000d6a:	6054      	str	r4, [r2, #4]
 8000d6c:	601c      	str	r4, [r3, #0]
 8000d6e:	e003      	b.n	8000d78 <kprocess_add_to_active_list+0x94>
 8000d70:	4804      	ldr	r0, [pc, #16]	; (8000d84 <kprocess_add_to_active_list+0xa0>)
 8000d72:	4621      	mov	r1, r4
 8000d74:	f7ff ff58 	bl	8000c28 <dlist_add_tail>
 8000d78:	b005      	add	sp, #20
 8000d7a:	bd30      	pop	{r4, r5, pc}
 8000d7c:	20000024 	.word	0x20000024
 8000d80:	2000000c 	.word	0x2000000c
 8000d84:	20000020 	.word	0x20000020

08000d88 <kprocess_remove_from_active_list>:
 8000d88:	b537      	push	{r0, r1, r2, r4, r5, lr}
 8000d8a:	4604      	mov	r4, r0
 8000d8c:	4d11      	ldr	r5, [pc, #68]	; (8000dd4 <kprocess_remove_from_active_list+0x4c>)
 8000d8e:	4812      	ldr	r0, [pc, #72]	; (8000dd8 <kprocess_remove_from_active_list+0x50>)
 8000d90:	696b      	ldr	r3, [r5, #20]
 8000d92:	429c      	cmp	r4, r3
 8000d94:	d105      	bne.n	8000da2 <kprocess_remove_from_active_list+0x1a>
 8000d96:	f7ff ff57 	bl	8000c48 <dlist_remove_head>
 8000d9a:	6968      	ldr	r0, [r5, #20]
 8000d9c:	f7ff ff74 	bl	8000c88 <switch_to_process>
 8000da0:	e002      	b.n	8000da8 <kprocess_remove_from_active_list+0x20>
 8000da2:	4621      	mov	r1, r4
 8000da4:	f7ff ff61 	bl	8000c6a <dlist_remove>
 8000da8:	4621      	mov	r1, r4
 8000daa:	480c      	ldr	r0, [pc, #48]	; (8000ddc <kprocess_remove_from_active_list+0x54>)
 8000dac:	f7ff ff3c 	bl	8000c28 <dlist_add_tail>
 8000db0:	4668      	mov	r0, sp
 8000db2:	f000 fc07 	bl	80015c4 <ksystime_get_uptime_internal>
 8000db6:	f104 0044 	add.w	r0, r4, #68	; 0x44
 8000dba:	4669      	mov	r1, sp
 8000dbc:	466a      	mov	r2, sp
 8000dbe:	f003 fdbc 	bl	800493a <systime_sub>
 8000dc2:	f104 013c 	add.w	r1, r4, #60	; 0x3c
 8000dc6:	4668      	mov	r0, sp
 8000dc8:	460a      	mov	r2, r1
 8000dca:	f003 fdb0 	bl	800492e <systime_add>
 8000dce:	b003      	add	sp, #12
 8000dd0:	bd30      	pop	{r4, r5, pc}
 8000dd2:	bf00      	nop
 8000dd4:	2000000c 	.word	0x2000000c
 8000dd8:	20000020 	.word	0x20000020
 8000ddc:	20000024 	.word	0x20000024

08000de0 <kprocess_wakeup_internal>:
 8000de0:	6943      	ldr	r3, [r0, #20]
 8000de2:	b510      	push	{r4, lr}
 8000de4:	079b      	lsls	r3, r3, #30
 8000de6:	4604      	mov	r4, r0
 8000de8:	d513      	bpl.n	8000e12 <kprocess_wakeup_internal+0x32>
 8000dea:	301c      	adds	r0, #28
 8000dec:	f000 fd1e 	bl	800182c <ksystime_timer_stop_internal>
 8000df0:	6963      	ldr	r3, [r4, #20]
 8000df2:	f023 02f0 	bic.w	r2, r3, #240	; 0xf0
 8000df6:	f003 0303 	and.w	r3, r3, #3
 8000dfa:	2b02      	cmp	r3, #2
 8000dfc:	6162      	str	r2, [r4, #20]
 8000dfe:	d004      	beq.n	8000e0a <kprocess_wakeup_internal+0x2a>
 8000e00:	2b03      	cmp	r3, #3
 8000e02:	d106      	bne.n	8000e12 <kprocess_wakeup_internal+0x32>
 8000e04:	4620      	mov	r0, r4
 8000e06:	f7ff ff6d 	bl	8000ce4 <kprocess_add_to_active_list>
 8000e0a:	6963      	ldr	r3, [r4, #20]
 8000e0c:	f023 0302 	bic.w	r3, r3, #2
 8000e10:	6163      	str	r3, [r4, #20]
 8000e12:	bd10      	pop	{r4, pc}

08000e14 <kprocess_timeout>:
 8000e14:	b508      	push	{r3, lr}
 8000e16:	b672      	cpsid	i
 8000e18:	6943      	ldr	r3, [r0, #20]
 8000e1a:	079b      	lsls	r3, r3, #30
 8000e1c:	d501      	bpl.n	8000e22 <kprocess_timeout+0xe>
 8000e1e:	f7ff ffdf 	bl	8000de0 <kprocess_wakeup_internal>
 8000e22:	b662      	cpsie	i
 8000e24:	bd08      	pop	{r3, pc}
 8000e26:	0000      	movs	r0, r0

08000e28 <kprocess_create>:
 8000e28:	b5f8      	push	{r3, r4, r5, r6, r7, lr}
 8000e2a:	4605      	mov	r5, r0
 8000e2c:	460c      	mov	r4, r1
 8000e2e:	b672      	cpsid	i
 8000e30:	2058      	movs	r0, #88	; 0x58
 8000e32:	f7ff fdd3 	bl	80009dc <kmalloc>
 8000e36:	6020      	str	r0, [r4, #0]
 8000e38:	b662      	cpsie	i
 8000e3a:	2100      	movs	r1, #0
 8000e3c:	2258      	movs	r2, #88	; 0x58
 8000e3e:	f003 ff9b 	bl	8004d78 <memset>
 8000e42:	6823      	ldr	r3, [r4, #0]
 8000e44:	2b00      	cmp	r3, #0
 8000e46:	d06b      	beq.n	8000f20 <kprocess_create+0xf8>
 8000e48:	68eb      	ldr	r3, [r5, #12]
 8000e4a:	01d9      	lsls	r1, r3, #7
 8000e4c:	d404      	bmi.n	8000e58 <kprocess_create+0x30>
 8000e4e:	6828      	ldr	r0, [r5, #0]
 8000e50:	f004 f83e 	bl	8004ed0 <strlen>
 8000e54:	30b5      	adds	r0, #181	; 0xb5
 8000e56:	e000      	b.n	8000e5a <kprocess_create+0x32>
 8000e58:	20b4      	movs	r0, #180	; 0xb4
 8000e5a:	3003      	adds	r0, #3
 8000e5c:	f020 0603 	bic.w	r6, r0, #3
 8000e60:	b672      	cpsid	i
 8000e62:	6868      	ldr	r0, [r5, #4]
 8000e64:	6827      	ldr	r7, [r4, #0]
 8000e66:	4430      	add	r0, r6
 8000e68:	f7ff fdb8 	bl	80009dc <kmalloc>
 8000e6c:	60b8      	str	r0, [r7, #8]
 8000e6e:	b662      	cpsie	i
 8000e70:	6820      	ldr	r0, [r4, #0]
 8000e72:	6887      	ldr	r7, [r0, #8]
 8000e74:	2f00      	cmp	r7, #0
 8000e76:	d04b      	beq.n	8000f10 <kprocess_create+0xe8>
 8000e78:	686a      	ldr	r2, [r5, #4]
 8000e7a:	21cd      	movs	r1, #205	; 0xcd
 8000e7c:	4432      	add	r2, r6
 8000e7e:	4638      	mov	r0, r7
 8000e80:	f003 ff7a 	bl	8004d78 <memset>
 8000e84:	6822      	ldr	r2, [r4, #0]
 8000e86:	2300      	movs	r3, #0
 8000e88:	6153      	str	r3, [r2, #20]
 8000e8a:	68ab      	ldr	r3, [r5, #8]
 8000e8c:	6891      	ldr	r1, [r2, #8]
 8000e8e:	6193      	str	r3, [r2, #24]
 8000e90:	686b      	ldr	r3, [r5, #4]
 8000e92:	440b      	add	r3, r1
 8000e94:	4433      	add	r3, r6
 8000e96:	60d3      	str	r3, [r2, #12]
 8000e98:	6822      	ldr	r2, [r4, #0]
 8000e9a:	4925      	ldr	r1, [pc, #148]	; (8000f30 <kprocess_create+0x108>)
 8000e9c:	f102 001c 	add.w	r0, r2, #28
 8000ea0:	f000 fcda 	bl	8001858 <ksystime_timer_init_internal>
 8000ea4:	686b      	ldr	r3, [r5, #4]
 8000ea6:	6820      	ldr	r0, [r4, #0]
 8000ea8:	4433      	add	r3, r6
 8000eaa:	6103      	str	r3, [r0, #16]
 8000eac:	f000 fe60 	bl	8001b70 <kipc_init>
 8000eb0:	6823      	ldr	r3, [r4, #0]
 8000eb2:	6898      	ldr	r0, [r3, #8]
 8000eb4:	f04f 33ff 	mov.w	r3, #4294967295
 8000eb8:	6143      	str	r3, [r0, #20]
 8000eba:	6103      	str	r3, [r0, #16]
 8000ebc:	68eb      	ldr	r3, [r5, #12]
 8000ebe:	01da      	lsls	r2, r3, #7
 8000ec0:	d502      	bpl.n	8000ec8 <kprocess_create+0xa0>
 8000ec2:	682b      	ldr	r3, [r5, #0]
 8000ec4:	6183      	str	r3, [r0, #24]
 8000ec6:	e008      	b.n	8000eda <kprocess_create+0xb2>
 8000ec8:	30b4      	adds	r0, #180	; 0xb4
 8000eca:	6829      	ldr	r1, [r5, #0]
 8000ecc:	f003 ffa2 	bl	8004e14 <strcpy>
 8000ed0:	6823      	ldr	r3, [r4, #0]
 8000ed2:	689b      	ldr	r3, [r3, #8]
 8000ed4:	f103 02b4 	add.w	r2, r3, #180	; 0xb4
 8000ed8:	619a      	str	r2, [r3, #24]
 8000eda:	6823      	ldr	r3, [r4, #0]
 8000edc:	6899      	ldr	r1, [r3, #8]
 8000ede:	1d08      	adds	r0, r1, #4
 8000ee0:	4431      	add	r1, r6
 8000ee2:	f001 fb71 	bl	80025c8 <pool_init>
 8000ee6:	6820      	ldr	r0, [r4, #0]
 8000ee8:	6929      	ldr	r1, [r5, #16]
 8000eea:	f7ff f9b9 	bl	8000260 <process_setup_context>
 8000eee:	4811      	ldr	r0, [pc, #68]	; (8000f34 <kprocess_create+0x10c>)
 8000ef0:	6821      	ldr	r1, [r4, #0]
 8000ef2:	f7ff fe99 	bl	8000c28 <dlist_add_tail>
 8000ef6:	68eb      	ldr	r3, [r5, #12]
 8000ef8:	07db      	lsls	r3, r3, #31
 8000efa:	d517      	bpl.n	8000f2c <kprocess_create+0x104>
 8000efc:	6820      	ldr	r0, [r4, #0]
 8000efe:	6943      	ldr	r3, [r0, #20]
 8000f00:	f043 0301 	orr.w	r3, r3, #1
 8000f04:	6143      	str	r3, [r0, #20]
 8000f06:	b672      	cpsid	i
 8000f08:	f7ff feec 	bl	8000ce4 <kprocess_add_to_active_list>
 8000f0c:	b662      	cpsie	i
 8000f0e:	bdf8      	pop	{r3, r4, r5, r6, r7, pc}
 8000f10:	b672      	cpsid	i
 8000f12:	f7ff fd71 	bl	80009f8 <kfree>
 8000f16:	b662      	cpsie	i
 8000f18:	f06f 00ca 	mvn.w	r0, #202	; 0xca
 8000f1c:	6027      	str	r7, [r4, #0]
 8000f1e:	e001      	b.n	8000f24 <kprocess_create+0xfc>
 8000f20:	f06f 00c9 	mvn.w	r0, #201	; 0xc9
 8000f24:	e8bd 40f8 	ldmia.w	sp!, {r3, r4, r5, r6, r7, lr}
 8000f28:	f003 bca9 	b.w	800487e <error>
 8000f2c:	bdf8      	pop	{r3, r4, r5, r6, r7, pc}
 8000f2e:	bf00      	nop
 8000f30:	08000e15 	.word	0x08000e15
 8000f34:	20000024 	.word	0x20000024

08000f38 <kprocess_name>:
 8000f38:	6883      	ldr	r3, [r0, #8]
 8000f3a:	6998      	ldr	r0, [r3, #24]
 8000f3c:	4770      	bx	lr
 8000f3e:	0000      	movs	r0, r0

08000f40 <kprocess_get_current>:
 8000f40:	4a04      	ldr	r2, [pc, #16]	; (8000f54 <kprocess_get_current+0x14>)
 8000f42:	69d3      	ldr	r3, [r2, #28]
 8000f44:	2b00      	cmp	r3, #0
 8000f46:	bfa3      	ittte	ge
 8000f48:	3308      	addge	r3, #8
 8000f4a:	f852 3023 	ldrge.w	r3, [r2, r3, lsl #2]
 8000f4e:	6898      	ldrge	r0, [r3, #8]
 8000f50:	68d0      	ldrlt	r0, [r2, #12]
 8000f52:	4770      	bx	lr
 8000f54:	2000000c 	.word	0x2000000c

08000f58 <kprocess_get_flags>:
 8000f58:	b508      	push	{r3, lr}
 8000f5a:	1cc3      	adds	r3, r0, #3
 8000f5c:	2b02      	cmp	r3, #2
 8000f5e:	d809      	bhi.n	8000f74 <kprocess_get_flags+0x1c>
 8000f60:	f7ff ffee 	bl	8000f40 <kprocess_get_current>
 8000f64:	6883      	ldr	r3, [r0, #8]
 8000f66:	4905      	ldr	r1, [pc, #20]	; (8000f7c <kprocess_get_flags+0x24>)
 8000f68:	4805      	ldr	r0, [pc, #20]	; (8000f80 <kprocess_get_flags+0x28>)
 8000f6a:	22c8      	movs	r2, #200	; 0xc8
 8000f6c:	699b      	ldr	r3, [r3, #24]
 8000f6e:	f7ff fbf5 	bl	800075c <printk>
 8000f72:	e7fe      	b.n	8000f72 <kprocess_get_flags+0x1a>
 8000f74:	6943      	ldr	r3, [r0, #20]
 8000f76:	600b      	str	r3, [r1, #0]
 8000f78:	bd08      	pop	{r3, pc}
 8000f7a:	bf00      	nop
 8000f7c:	080051ef 	.word	0x080051ef
 8000f80:	080051bc 	.word	0x080051bc

08000f84 <kprocess_set_flags>:
 8000f84:	1cc3      	adds	r3, r0, #3
 8000f86:	2b02      	cmp	r3, #2
 8000f88:	b510      	push	{r4, lr}
 8000f8a:	4604      	mov	r4, r0
 8000f8c:	d809      	bhi.n	8000fa2 <kprocess_set_flags+0x1e>
 8000f8e:	f7ff ffd7 	bl	8000f40 <kprocess_get_current>
 8000f92:	6883      	ldr	r3, [r0, #8]
 8000f94:	4913      	ldr	r1, [pc, #76]	; (8000fe4 <kprocess_set_flags+0x60>)
 8000f96:	4814      	ldr	r0, [pc, #80]	; (8000fe8 <kprocess_set_flags+0x64>)
 8000f98:	22d0      	movs	r2, #208	; 0xd0
 8000f9a:	699b      	ldr	r3, [r3, #24]
 8000f9c:	f7ff fbde 	bl	800075c <printk>
 8000fa0:	e7fe      	b.n	8000fa0 <kprocess_set_flags+0x1c>
 8000fa2:	b672      	cpsid	i
 8000fa4:	f011 0f01 	tst.w	r1, #1
 8000fa8:	6943      	ldr	r3, [r0, #20]
 8000faa:	d00b      	beq.n	8000fc4 <kprocess_set_flags+0x40>
 8000fac:	f013 0303 	ands.w	r3, r3, #3
 8000fb0:	d002      	beq.n	8000fb8 <kprocess_set_flags+0x34>
 8000fb2:	2b02      	cmp	r3, #2
 8000fb4:	d002      	beq.n	8000fbc <kprocess_set_flags+0x38>
 8000fb6:	e012      	b.n	8000fde <kprocess_set_flags+0x5a>
 8000fb8:	f7ff fe94 	bl	8000ce4 <kprocess_add_to_active_list>
 8000fbc:	6963      	ldr	r3, [r4, #20]
 8000fbe:	f043 0301 	orr.w	r3, r3, #1
 8000fc2:	e00b      	b.n	8000fdc <kprocess_set_flags+0x58>
 8000fc4:	f003 0303 	and.w	r3, r3, #3
 8000fc8:	2b01      	cmp	r3, #1
 8000fca:	d002      	beq.n	8000fd2 <kprocess_set_flags+0x4e>
 8000fcc:	2b03      	cmp	r3, #3
 8000fce:	d002      	beq.n	8000fd6 <kprocess_set_flags+0x52>
 8000fd0:	e005      	b.n	8000fde <kprocess_set_flags+0x5a>
 8000fd2:	f7ff fed9 	bl	8000d88 <kprocess_remove_from_active_list>
 8000fd6:	6963      	ldr	r3, [r4, #20]
 8000fd8:	f023 0301 	bic.w	r3, r3, #1
 8000fdc:	6163      	str	r3, [r4, #20]
 8000fde:	b662      	cpsie	i
 8000fe0:	bd10      	pop	{r4, pc}
 8000fe2:	bf00      	nop
 8000fe4:	080051ef 	.word	0x080051ef
 8000fe8:	080051bc 	.word	0x080051bc

08000fec <kprocess_set_priority>:
 8000fec:	1cc3      	adds	r3, r0, #3
 8000fee:	2b02      	cmp	r3, #2
 8000ff0:	b510      	push	{r4, lr}
 8000ff2:	4604      	mov	r4, r0
 8000ff4:	d809      	bhi.n	800100a <kprocess_set_priority+0x1e>
 8000ff6:	f7ff ffa3 	bl	8000f40 <kprocess_get_current>
 8000ffa:	6883      	ldr	r3, [r0, #8]
 8000ffc:	490b      	ldr	r1, [pc, #44]	; (800102c <kprocess_set_priority+0x40>)
 8000ffe:	480c      	ldr	r0, [pc, #48]	; (8001030 <kprocess_set_priority+0x44>)
 8001000:	22ee      	movs	r2, #238	; 0xee
 8001002:	699b      	ldr	r3, [r3, #24]
 8001004:	f7ff fbaa 	bl	800075c <printk>
 8001008:	e7fe      	b.n	8001008 <kprocess_set_priority+0x1c>
 800100a:	b672      	cpsid	i
 800100c:	6983      	ldr	r3, [r0, #24]
 800100e:	428b      	cmp	r3, r1
 8001010:	d00a      	beq.n	8001028 <kprocess_set_priority+0x3c>
 8001012:	6943      	ldr	r3, [r0, #20]
 8001014:	6181      	str	r1, [r0, #24]
 8001016:	f003 0303 	and.w	r3, r3, #3
 800101a:	2b01      	cmp	r3, #1
 800101c:	d104      	bne.n	8001028 <kprocess_set_priority+0x3c>
 800101e:	f7ff feb3 	bl	8000d88 <kprocess_remove_from_active_list>
 8001022:	4620      	mov	r0, r4
 8001024:	f7ff fe5e 	bl	8000ce4 <kprocess_add_to_active_list>
 8001028:	b662      	cpsie	i
 800102a:	bd10      	pop	{r4, pc}
 800102c:	080051ef 	.word	0x080051ef
 8001030:	080051bc 	.word	0x080051bc

08001034 <kprocess_get_priority>:
 8001034:	b508      	push	{r3, lr}
 8001036:	1cc3      	adds	r3, r0, #3
 8001038:	2b02      	cmp	r3, #2
 800103a:	d809      	bhi.n	8001050 <kprocess_get_priority+0x1c>
 800103c:	f7ff ff80 	bl	8000f40 <kprocess_get_current>
 8001040:	6883      	ldr	r3, [r0, #8]
 8001042:	4905      	ldr	r1, [pc, #20]	; (8001058 <kprocess_get_priority+0x24>)
 8001044:	4805      	ldr	r0, [pc, #20]	; (800105c <kprocess_get_priority+0x28>)
 8001046:	22ff      	movs	r2, #255	; 0xff
 8001048:	699b      	ldr	r3, [r3, #24]
 800104a:	f7ff fb87 	bl	800075c <printk>
 800104e:	e7fe      	b.n	800104e <kprocess_get_priority+0x1a>
 8001050:	6983      	ldr	r3, [r0, #24]
 8001052:	600b      	str	r3, [r1, #0]
 8001054:	bd08      	pop	{r3, pc}
 8001056:	bf00      	nop
 8001058:	080051ef 	.word	0x080051ef
 800105c:	080051bc 	.word	0x080051bc

08001060 <kprocess_get_current_svc>:
 8001060:	b510      	push	{r4, lr}
 8001062:	4604      	mov	r4, r0
 8001064:	f7ff ff6c 	bl	8000f40 <kprocess_get_current>
 8001068:	6020      	str	r0, [r4, #0]
 800106a:	bd10      	pop	{r4, pc}

0800106c <kprocess_destroy>:
 800106c:	1c42      	adds	r2, r0, #1
 800106e:	b510      	push	{r4, lr}
 8001070:	4604      	mov	r4, r0
 8001072:	d048      	beq.n	8001106 <kprocess_destroy+0x9a>
 8001074:	1cc3      	adds	r3, r0, #3
 8001076:	2b02      	cmp	r3, #2
 8001078:	d80a      	bhi.n	8001090 <kprocess_destroy+0x24>
 800107a:	f7ff ff61 	bl	8000f40 <kprocess_get_current>
 800107e:	6883      	ldr	r3, [r0, #8]
 8001080:	4921      	ldr	r1, [pc, #132]	; (8001108 <kprocess_destroy+0x9c>)
 8001082:	4822      	ldr	r0, [pc, #136]	; (800110c <kprocess_destroy+0xa0>)
 8001084:	f240 1215 	movw	r2, #277	; 0x115
 8001088:	699b      	ldr	r3, [r3, #24]
 800108a:	f7ff fb67 	bl	800075c <printk>
 800108e:	e7fe      	b.n	800108e <kprocess_destroy+0x22>
 8001090:	b672      	cpsid	i
 8001092:	6943      	ldr	r3, [r0, #20]
 8001094:	f003 0303 	and.w	r3, r3, #3
 8001098:	2b01      	cmp	r3, #1
 800109a:	d107      	bne.n	80010ac <kprocess_destroy+0x40>
 800109c:	f7ff fe74 	bl	8000d88 <kprocess_remove_from_active_list>
 80010a0:	4b1b      	ldr	r3, [pc, #108]	; (8001110 <kprocess_destroy+0xa4>)
 80010a2:	68da      	ldr	r2, [r3, #12]
 80010a4:	42a2      	cmp	r2, r4
 80010a6:	bf04      	itt	eq
 80010a8:	2200      	moveq	r2, #0
 80010aa:	60da      	streq	r2, [r3, #12]
 80010ac:	6963      	ldr	r3, [r4, #20]
 80010ae:	079b      	lsls	r3, r3, #30
 80010b0:	d51c      	bpl.n	80010ec <kprocess_destroy+0x80>
 80010b2:	f104 001c 	add.w	r0, r4, #28
 80010b6:	f000 fbb9 	bl	800182c <ksystime_timer_stop_internal>
 80010ba:	6963      	ldr	r3, [r4, #20]
 80010bc:	f003 03f0 	and.w	r3, r3, #240	; 0xf0
 80010c0:	2b40      	cmp	r3, #64	; 0x40
 80010c2:	d009      	beq.n	80010d8 <kprocess_destroy+0x6c>
 80010c4:	2b50      	cmp	r3, #80	; 0x50
 80010c6:	d00b      	beq.n	80010e0 <kprocess_destroy+0x74>
 80010c8:	b183      	cbz	r3, 80010ec <kprocess_destroy+0x80>
 80010ca:	4812      	ldr	r0, [pc, #72]	; (8001114 <kprocess_destroy+0xa8>)
 80010cc:	490e      	ldr	r1, [pc, #56]	; (8001108 <kprocess_destroy+0x9c>)
 80010ce:	f44f 7299 	mov.w	r2, #306	; 0x132
 80010d2:	f7ff fb43 	bl	800075c <printk>
 80010d6:	e008      	b.n	80010ea <kprocess_destroy+0x7e>
 80010d8:	4620      	mov	r0, r4
 80010da:	f000 fca7 	bl	8001a2c <kipc_lock_release>
 80010de:	e005      	b.n	80010ec <kprocess_destroy+0x80>
 80010e0:	6ba0      	ldr	r0, [r4, #56]	; 0x38
 80010e2:	4621      	mov	r1, r4
 80010e4:	f000 fdda 	bl	8001c9c <kstream_lock_release>
 80010e8:	e000      	b.n	80010ec <kprocess_destroy+0x80>
 80010ea:	e7fe      	b.n	80010ea <kprocess_destroy+0x7e>
 80010ec:	480a      	ldr	r0, [pc, #40]	; (8001118 <kprocess_destroy+0xac>)
 80010ee:	4621      	mov	r1, r4
 80010f0:	f7ff fdbb 	bl	8000c6a <dlist_remove>
 80010f4:	b662      	cpsie	i
 80010f6:	b672      	cpsid	i
 80010f8:	68a0      	ldr	r0, [r4, #8]
 80010fa:	f7ff fc7d 	bl	80009f8 <kfree>
 80010fe:	4620      	mov	r0, r4
 8001100:	f7ff fc7a 	bl	80009f8 <kfree>
 8001104:	b662      	cpsie	i
 8001106:	bd10      	pop	{r4, pc}
 8001108:	080051ef 	.word	0x080051ef
 800110c:	080051bc 	.word	0x080051bc
 8001110:	2000000c 	.word	0x2000000c
 8001114:	0800520c 	.word	0x0800520c
 8001118:	20000024 	.word	0x20000024

0800111c <kprocess_sleep>:
 800111c:	b5f8      	push	{r3, r4, r5, r6, r7, lr}
 800111e:	461f      	mov	r7, r3
 8001120:	1cc3      	adds	r3, r0, #3
 8001122:	2b02      	cmp	r3, #2
 8001124:	4604      	mov	r4, r0
 8001126:	460e      	mov	r6, r1
 8001128:	4615      	mov	r5, r2
 800112a:	d80a      	bhi.n	8001142 <kprocess_sleep+0x26>
 800112c:	f7ff ff08 	bl	8000f40 <kprocess_get_current>
 8001130:	6883      	ldr	r3, [r0, #8]
 8001132:	4914      	ldr	r1, [pc, #80]	; (8001184 <kprocess_sleep+0x68>)
 8001134:	4814      	ldr	r0, [pc, #80]	; (8001188 <kprocess_sleep+0x6c>)
 8001136:	f44f 72a1 	mov.w	r2, #322	; 0x142
 800113a:	699b      	ldr	r3, [r3, #24]
 800113c:	f7ff fb0e 	bl	800075c <printk>
 8001140:	e7fe      	b.n	8001140 <kprocess_sleep+0x24>
 8001142:	b672      	cpsid	i
 8001144:	6943      	ldr	r3, [r0, #20]
 8001146:	079b      	lsls	r3, r3, #30
 8001148:	d506      	bpl.n	8001158 <kprocess_sleep+0x3c>
 800114a:	4810      	ldr	r0, [pc, #64]	; (800118c <kprocess_sleep+0x70>)
 800114c:	490d      	ldr	r1, [pc, #52]	; (8001184 <kprocess_sleep+0x68>)
 800114e:	f240 1245 	movw	r2, #325	; 0x145
 8001152:	f7ff fb03 	bl	800075c <printk>
 8001156:	e7fe      	b.n	8001156 <kprocess_sleep+0x3a>
 8001158:	f7ff fe16 	bl	8000d88 <kprocess_remove_from_active_list>
 800115c:	6962      	ldr	r2, [r4, #20]
 800115e:	f045 0502 	orr.w	r5, r5, #2
 8001162:	4315      	orrs	r5, r2
 8001164:	6165      	str	r5, [r4, #20]
 8001166:	63a7      	str	r7, [r4, #56]	; 0x38
 8001168:	b662      	cpsie	i
 800116a:	b156      	cbz	r6, 8001182 <kprocess_sleep+0x66>
 800116c:	6833      	ldr	r3, [r6, #0]
 800116e:	b90b      	cbnz	r3, 8001174 <kprocess_sleep+0x58>
 8001170:	6873      	ldr	r3, [r6, #4]
 8001172:	b133      	cbz	r3, 8001182 <kprocess_sleep+0x66>
 8001174:	f104 001c 	add.w	r0, r4, #28
 8001178:	4631      	mov	r1, r6
 800117a:	e8bd 40f8 	ldmia.w	sp!, {r3, r4, r5, r6, r7, lr}
 800117e:	f000 baf9 	b.w	8001774 <ksystime_timer_start_internal>
 8001182:	bdf8      	pop	{r3, r4, r5, r6, r7, pc}
 8001184:	080051ef 	.word	0x080051ef
 8001188:	080051bc 	.word	0x080051bc
 800118c:	0800520c 	.word	0x0800520c

08001190 <kprocess_wakeup>:
 8001190:	b508      	push	{r3, lr}
 8001192:	1cc3      	adds	r3, r0, #3
 8001194:	2b02      	cmp	r3, #2
 8001196:	d80a      	bhi.n	80011ae <kprocess_wakeup+0x1e>
 8001198:	f7ff fed2 	bl	8000f40 <kprocess_get_current>
 800119c:	6883      	ldr	r3, [r0, #8]
 800119e:	4906      	ldr	r1, [pc, #24]	; (80011b8 <kprocess_wakeup+0x28>)
 80011a0:	4806      	ldr	r0, [pc, #24]	; (80011bc <kprocess_wakeup+0x2c>)
 80011a2:	f44f 72a9 	mov.w	r2, #338	; 0x152
 80011a6:	699b      	ldr	r3, [r3, #24]
 80011a8:	f7ff fad8 	bl	800075c <printk>
 80011ac:	e7fe      	b.n	80011ac <kprocess_wakeup+0x1c>
 80011ae:	b672      	cpsid	i
 80011b0:	f7ff fe16 	bl	8000de0 <kprocess_wakeup_internal>
 80011b4:	b662      	cpsie	i
 80011b6:	bd08      	pop	{r3, pc}
 80011b8:	080051ef 	.word	0x080051ef
 80011bc:	080051bc 	.word	0x080051bc

080011c0 <kprocess_error>:
 80011c0:	b508      	push	{r3, lr}
 80011c2:	1cc3      	adds	r3, r0, #3
 80011c4:	2b02      	cmp	r3, #2
 80011c6:	d80a      	bhi.n	80011de <kprocess_error+0x1e>
 80011c8:	f7ff feba 	bl	8000f40 <kprocess_get_current>
 80011cc:	6883      	ldr	r3, [r0, #8]
 80011ce:	4905      	ldr	r1, [pc, #20]	; (80011e4 <kprocess_error+0x24>)
 80011d0:	4805      	ldr	r0, [pc, #20]	; (80011e8 <kprocess_error+0x28>)
 80011d2:	f240 125b 	movw	r2, #347	; 0x15b
 80011d6:	699b      	ldr	r3, [r3, #24]
 80011d8:	f7ff fac0 	bl	800075c <printk>
 80011dc:	e7fe      	b.n	80011dc <kprocess_error+0x1c>
 80011de:	6883      	ldr	r3, [r0, #8]
 80011e0:	6019      	str	r1, [r3, #0]
 80011e2:	bd08      	pop	{r3, pc}
 80011e4:	080051ef 	.word	0x080051ef
 80011e8:	080051bc 	.word	0x080051bc

080011ec <kprocess_error_current>:
 80011ec:	b510      	push	{r4, lr}
 80011ee:	4604      	mov	r4, r0
 80011f0:	f7ff fea6 	bl	8000f40 <kprocess_get_current>
 80011f4:	b120      	cbz	r0, 8001200 <kprocess_error_current+0x14>
 80011f6:	4621      	mov	r1, r4
 80011f8:	e8bd 4010 	ldmia.w	sp!, {r4, lr}
 80011fc:	f7ff bfe0 	b.w	80011c0 <kprocess_error>
 8001200:	bd10      	pop	{r4, pc}

08001202 <kprocess_destroy_current>:
 8001202:	b508      	push	{r3, lr}
 8001204:	f7ff fe9c 	bl	8000f40 <kprocess_get_current>
 8001208:	b118      	cbz	r0, 8001212 <kprocess_destroy_current+0x10>
 800120a:	e8bd 4008 	ldmia.w	sp!, {r3, lr}
 800120e:	f7ff bf2d 	b.w	800106c <kprocess_destroy>
 8001212:	bd08      	pop	{r3, pc}

08001214 <kprocess_abnormal_exit>:
 8001214:	b508      	push	{r3, lr}
 8001216:	f7ff fe93 	bl	8000f40 <kprocess_get_current>
 800121a:	6883      	ldr	r3, [r0, #8]
 800121c:	4803      	ldr	r0, [pc, #12]	; (800122c <kprocess_abnormal_exit+0x18>)
 800121e:	6999      	ldr	r1, [r3, #24]
 8001220:	f7ff fa9c 	bl	800075c <printk>
 8001224:	e8bd 4008 	ldmia.w	sp!, {r3, lr}
 8001228:	f7ff bfeb 	b.w	8001202 <kprocess_destroy_current>
 800122c:	08005223 	.word	0x08005223

08001230 <kprocess_init>:
 8001230:	b507      	push	{r0, r1, r2, lr}
 8001232:	4a06      	ldr	r2, [pc, #24]	; (800124c <kprocess_init+0x1c>)
 8001234:	2300      	movs	r3, #0
 8001236:	6113      	str	r3, [r2, #16]
 8001238:	60d3      	str	r3, [r2, #12]
 800123a:	6153      	str	r3, [r2, #20]
 800123c:	6193      	str	r3, [r2, #24]
 800123e:	a901      	add	r1, sp, #4
 8001240:	f7ff fdf2 	bl	8000e28 <kprocess_create>
 8001244:	b003      	add	sp, #12
 8001246:	f85d fb04 	ldr.w	pc, [sp], #4
 800124a:	bf00      	nop
 800124c:	2000000c 	.word	0x2000000c

08001250 <kprocess_switch_test>:
 8001250:	b510      	push	{r4, lr}
 8001252:	f7ff fe75 	bl	8000f40 <kprocess_get_current>
 8001256:	4604      	mov	r4, r0
 8001258:	b672      	cpsid	i
 800125a:	f7ff fd95 	bl	8000d88 <kprocess_remove_from_active_list>
 800125e:	4620      	mov	r0, r4
 8001260:	f7ff fd40 	bl	8000ce4 <kprocess_add_to_active_list>
 8001264:	b662      	cpsie	i
 8001266:	bd10      	pop	{r4, pc}

08001268 <process_stat>:
 8001268:	b570      	push	{r4, r5, r6, lr}
 800126a:	4604      	mov	r4, r0
 800126c:	4b2c      	ldr	r3, [pc, #176]	; (8001320 <process_stat+0xb8>)
 800126e:	f04f 5500 	mov.w	r5, #536870912	; 0x20000000
 8001272:	2200      	movs	r2, #0
 8001274:	682e      	ldr	r6, [r5, #0]
 8001276:	602b      	str	r3, [r5, #0]
 8001278:	601a      	str	r2, [r3, #0]
 800127a:	68ab      	ldr	r3, [r5, #8]
 800127c:	6880      	ldr	r0, [r0, #8]
 800127e:	681b      	ldr	r3, [r3, #0]
 8001280:	b086      	sub	sp, #24
 8001282:	68e2      	ldr	r2, [r4, #12]
 8001284:	6a1b      	ldr	r3, [r3, #32]
 8001286:	3004      	adds	r0, #4
 8001288:	a901      	add	r1, sp, #4
 800128a:	4798      	blx	r3
 800128c:	602e      	str	r6, [r5, #0]
 800128e:	68a3      	ldr	r3, [r4, #8]
 8001290:	4824      	ldr	r0, [pc, #144]	; (8001324 <process_stat+0xbc>)
 8001292:	6999      	ldr	r1, [r3, #24]
 8001294:	f7ff fa62 	bl	800075c <printk>
 8001298:	69a1      	ldr	r1, [r4, #24]
 800129a:	4823      	ldr	r0, [pc, #140]	; (8001328 <process_stat+0xc0>)
 800129c:	f7ff fa5e 	bl	800075c <printk>
 80012a0:	68a0      	ldr	r0, [r4, #8]
 80012a2:	3004      	adds	r0, #4
 80012a4:	f001 faa7 	bl	80027f6 <pool_free_ptr>
 80012a8:	68a1      	ldr	r1, [r4, #8]
 80012aa:	6923      	ldr	r3, [r4, #16]
 80012ac:	440b      	add	r3, r1
 80012ae:	4298      	cmp	r0, r3
 80012b0:	4601      	mov	r1, r0
 80012b2:	d310      	bcc.n	80012d6 <process_stat+0x6e>
 80012b4:	1a59      	subs	r1, r3, r1
 80012b6:	481d      	ldr	r0, [pc, #116]	; (800132c <process_stat+0xc4>)
 80012b8:	4d19      	ldr	r5, [pc, #100]	; (8001320 <process_stat+0xb8>)
 80012ba:	f7ff fa4f 	bl	800075c <printk>
 80012be:	481c      	ldr	r0, [pc, #112]	; (8001330 <process_stat+0xc8>)
 80012c0:	6921      	ldr	r1, [r4, #16]
 80012c2:	f7ff fa4b 	bl	800075c <printk>
 80012c6:	682b      	ldr	r3, [r5, #0]
 80012c8:	b15b      	cbz	r3, 80012e2 <process_stat+0x7a>
 80012ca:	481a      	ldr	r0, [pc, #104]	; (8001334 <process_stat+0xcc>)
 80012cc:	f7ff fa46 	bl	800075c <printk>
 80012d0:	2300      	movs	r3, #0
 80012d2:	602b      	str	r3, [r5, #0]
 80012d4:	e010      	b.n	80012f8 <process_stat+0x90>
 80012d6:	f850 2b04 	ldr.w	r2, [r0], #4
 80012da:	f1b2 3fcd 	cmp.w	r2, #3452816845	; 0xcdcdcdcd
 80012de:	d0e6      	beq.n	80012ae <process_stat+0x46>
 80012e0:	e7e8      	b.n	80012b4 <process_stat+0x4c>
 80012e2:	4815      	ldr	r0, [pc, #84]	; (8001338 <process_stat+0xd0>)
 80012e4:	9904      	ldr	r1, [sp, #16]
 80012e6:	9a02      	ldr	r2, [sp, #8]
 80012e8:	f7ff fa38 	bl	800075c <printk>
 80012ec:	4813      	ldr	r0, [pc, #76]	; (800133c <process_stat+0xd4>)
 80012ee:	9903      	ldr	r1, [sp, #12]
 80012f0:	9a05      	ldr	r2, [sp, #20]
 80012f2:	9b01      	ldr	r3, [sp, #4]
 80012f4:	f7ff fa32 	bl	800075c <printk>
 80012f8:	6be5      	ldr	r5, [r4, #60]	; 0x3c
 80012fa:	223c      	movs	r2, #60	; 0x3c
 80012fc:	fbb5 f1f2 	udiv	r1, r5, r2
 8001300:	6c24      	ldr	r4, [r4, #64]	; 0x40
 8001302:	f44f 737a 	mov.w	r3, #1000	; 0x3e8
 8001306:	fb02 5211 	mls	r2, r2, r1, r5
 800130a:	fbb4 f3f3 	udiv	r3, r4, r3
 800130e:	480c      	ldr	r0, [pc, #48]	; (8001340 <process_stat+0xd8>)
 8001310:	f7ff fa24 	bl	800075c <printk>
 8001314:	480b      	ldr	r0, [pc, #44]	; (8001344 <process_stat+0xdc>)
 8001316:	f7ff fa21 	bl	800075c <printk>
 800131a:	b006      	add	sp, #24
 800131c:	bd70      	pop	{r4, r5, r6, pc}
 800131e:	bf00      	nop
 8001320:	2000000c 	.word	0x2000000c
 8001324:	0800524e 	.word	0x0800524e
 8001328:	08005258 	.word	0x08005258
 800132c:	08005262 	.word	0x08005262
 8001330:	08005268 	.word	0x08005268
 8001334:	0800526d 	.word	0x0800526d
 8001338:	08005285 	.word	0x08005285
 800133c:	08005293 	.word	0x08005293
 8001340:	080052a2 	.word	0x080052a2
 8001344:	08005472 	.word	0x08005472

08001348 <kprocess_info>:
 8001348:	e92d 41f0 	stmdb	sp!, {r4, r5, r6, r7, r8, lr}
 800134c:	4867      	ldr	r0, [pc, #412]	; (80014ec <kprocess_info+0x1a4>)
 800134e:	b090      	sub	sp, #64	; 0x40
 8001350:	f7ff fa04 	bl	800075c <printk>
 8001354:	4866      	ldr	r0, [pc, #408]	; (80014f0 <kprocess_info+0x1a8>)
 8001356:	f7ff fa01 	bl	800075c <printk>
 800135a:	b672      	cpsid	i
 800135c:	4b65      	ldr	r3, [pc, #404]	; (80014f4 <kprocess_info+0x1ac>)
 800135e:	2500      	movs	r5, #0
 8001360:	681a      	ldr	r2, [r3, #0]
 8001362:	9203      	str	r2, [sp, #12]
 8001364:	681a      	ldr	r2, [r3, #0]
 8001366:	9204      	str	r2, [sp, #16]
 8001368:	681b      	ldr	r3, [r3, #0]
 800136a:	3300      	adds	r3, #0
 800136c:	bf18      	it	ne
 800136e:	2301      	movne	r3, #1
 8001370:	f88d 3014 	strb.w	r3, [sp, #20]
 8001374:	a803      	add	r0, sp, #12
 8001376:	4669      	mov	r1, sp
 8001378:	f7ff fc92 	bl	8000ca0 <dlist_enum>
 800137c:	b120      	cbz	r0, 8001388 <kprocess_info+0x40>
 800137e:	9800      	ldr	r0, [sp, #0]
 8001380:	f7ff ff72 	bl	8001268 <process_stat>
 8001384:	3501      	adds	r5, #1
 8001386:	e7f5      	b.n	8001374 <kprocess_info+0x2c>
 8001388:	4b5b      	ldr	r3, [pc, #364]	; (80014f8 <kprocess_info+0x1b0>)
 800138a:	681a      	ldr	r2, [r3, #0]
 800138c:	9203      	str	r2, [sp, #12]
 800138e:	681a      	ldr	r2, [r3, #0]
 8001390:	9204      	str	r2, [sp, #16]
 8001392:	681b      	ldr	r3, [r3, #0]
 8001394:	3300      	adds	r3, #0
 8001396:	bf18      	it	ne
 8001398:	2301      	movne	r3, #1
 800139a:	f88d 3014 	strb.w	r3, [sp, #20]
 800139e:	a803      	add	r0, sp, #12
 80013a0:	4669      	mov	r1, sp
 80013a2:	f7ff fc7d 	bl	8000ca0 <dlist_enum>
 80013a6:	4604      	mov	r4, r0
 80013a8:	b120      	cbz	r0, 80013b4 <kprocess_info+0x6c>
 80013aa:	9800      	ldr	r0, [sp, #0]
 80013ac:	f7ff ff5c 	bl	8001268 <process_stat>
 80013b0:	3501      	adds	r5, #1
 80013b2:	e7f4      	b.n	800139e <kprocess_info+0x56>
 80013b4:	4629      	mov	r1, r5
 80013b6:	4851      	ldr	r0, [pc, #324]	; (80014fc <kprocess_info+0x1b4>)
 80013b8:	f7ff f9d0 	bl	800075c <printk>
 80013bc:	484c      	ldr	r0, [pc, #304]	; (80014f0 <kprocess_info+0x1a8>)
 80013be:	f7ff f9cd 	bl	800075c <printk>
 80013c2:	a80b      	add	r0, sp, #44	; 0x2c
 80013c4:	4621      	mov	r1, r4
 80013c6:	2214      	movs	r2, #20
 80013c8:	f003 fcd6 	bl	8004d78 <memset>
 80013cc:	4626      	mov	r6, r4
 80013ce:	4625      	mov	r5, r4
 80013d0:	4f4b      	ldr	r7, [pc, #300]	; (8001500 <kprocess_info+0x1b8>)
 80013d2:	f8d7 0120 	ldr.w	r0, [r7, #288]	; 0x120
 80013d6:	f7ff fb8d 	bl	8000af4 <karray_size_internal>
 80013da:	4285      	cmp	r5, r0
 80013dc:	d242      	bcs.n	8001464 <kprocess_info+0x11c>
 80013de:	4628      	mov	r0, r5
 80013e0:	f7ff fa10 	bl	8000804 <kpool_at>
 80013e4:	4680      	mov	r8, r0
 80013e6:	a906      	add	r1, sp, #24
 80013e8:	4628      	mov	r0, r5
 80013ea:	f7ff fad9 	bl	80009a0 <kpool_stat>
 80013ee:	4845      	ldr	r0, [pc, #276]	; (8001504 <kprocess_info+0x1bc>)
 80013f0:	f8d8 1000 	ldr.w	r1, [r8]
 80013f4:	f7ff f9b2 	bl	800075c <printk>
 80013f8:	4843      	ldr	r0, [pc, #268]	; (8001508 <kprocess_info+0x1c0>)
 80013fa:	f8d8 1004 	ldr.w	r1, [r8, #4]
 80013fe:	f7ff f9ad 	bl	800075c <printk>
 8001402:	683b      	ldr	r3, [r7, #0]
 8001404:	b133      	cbz	r3, 8001414 <kprocess_info+0xcc>
 8001406:	4841      	ldr	r0, [pc, #260]	; (800150c <kprocess_info+0x1c4>)
 8001408:	f7ff f9a8 	bl	800075c <printk>
 800140c:	2300      	movs	r3, #0
 800140e:	603b      	str	r3, [r7, #0]
 8001410:	2401      	movs	r4, #1
 8001412:	e00a      	b.n	800142a <kprocess_info+0xe2>
 8001414:	483e      	ldr	r0, [pc, #248]	; (8001510 <kprocess_info+0x1c8>)
 8001416:	9909      	ldr	r1, [sp, #36]	; 0x24
 8001418:	9a07      	ldr	r2, [sp, #28]
 800141a:	f7ff f99f 	bl	800075c <printk>
 800141e:	483d      	ldr	r0, [pc, #244]	; (8001514 <kprocess_info+0x1cc>)
 8001420:	9908      	ldr	r1, [sp, #32]
 8001422:	9a0a      	ldr	r2, [sp, #40]	; 0x28
 8001424:	9b06      	ldr	r3, [sp, #24]
 8001426:	f7ff f999 	bl	800075c <printk>
 800142a:	483b      	ldr	r0, [pc, #236]	; (8001518 <kprocess_info+0x1d0>)
 800142c:	f7ff f996 	bl	800075c <printk>
 8001430:	f8d8 3004 	ldr.w	r3, [r8, #4]
 8001434:	9a0e      	ldr	r2, [sp, #56]	; 0x38
 8001436:	441e      	add	r6, r3
 8001438:	9b09      	ldr	r3, [sp, #36]	; 0x24
 800143a:	3501      	adds	r5, #1
 800143c:	4413      	add	r3, r2
 800143e:	930e      	str	r3, [sp, #56]	; 0x38
 8001440:	9a0c      	ldr	r2, [sp, #48]	; 0x30
 8001442:	9b07      	ldr	r3, [sp, #28]
 8001444:	4413      	add	r3, r2
 8001446:	930c      	str	r3, [sp, #48]	; 0x30
 8001448:	9a0d      	ldr	r2, [sp, #52]	; 0x34
 800144a:	9b08      	ldr	r3, [sp, #32]
 800144c:	4413      	add	r3, r2
 800144e:	930d      	str	r3, [sp, #52]	; 0x34
 8001450:	9a0b      	ldr	r2, [sp, #44]	; 0x2c
 8001452:	9b06      	ldr	r3, [sp, #24]
 8001454:	4413      	add	r3, r2
 8001456:	930b      	str	r3, [sp, #44]	; 0x2c
 8001458:	9a0f      	ldr	r2, [sp, #60]	; 0x3c
 800145a:	9b0a      	ldr	r3, [sp, #40]	; 0x28
 800145c:	4293      	cmp	r3, r2
 800145e:	bf88      	it	hi
 8001460:	930f      	strhi	r3, [sp, #60]	; 0x3c
 8001462:	e7b5      	b.n	80013d0 <kprocess_info+0x88>
 8001464:	4b2d      	ldr	r3, [pc, #180]	; (800151c <kprocess_info+0x1d4>)
 8001466:	482e      	ldr	r0, [pc, #184]	; (8001520 <kprocess_info+0x1d8>)
 8001468:	6819      	ldr	r1, [r3, #0]
 800146a:	f7ff f977 	bl	800075c <printk>
 800146e:	492d      	ldr	r1, [pc, #180]	; (8001524 <kprocess_info+0x1dc>)
 8001470:	680b      	ldr	r3, [r1, #0]
 8001472:	1d0a      	adds	r2, r1, #4
 8001474:	f1b3 3fcd 	cmp.w	r3, #3452816845	; 0xcdcdcdcd
 8001478:	d103      	bne.n	8001482 <kprocess_info+0x13a>
 800147a:	f1b2 2f20 	cmp.w	r2, #536879104	; 0x20002000
 800147e:	4611      	mov	r1, r2
 8001480:	d1f6      	bne.n	8001470 <kprocess_info+0x128>
 8001482:	4829      	ldr	r0, [pc, #164]	; (8001528 <kprocess_info+0x1e0>)
 8001484:	f1c1 2120 	rsb	r1, r1, #536879104	; 0x20002000
 8001488:	f7ff f968 	bl	800075c <printk>
 800148c:	481e      	ldr	r0, [pc, #120]	; (8001508 <kprocess_info+0x1c0>)
 800148e:	4631      	mov	r1, r6
 8001490:	f7ff f964 	bl	800075c <printk>
 8001494:	b11c      	cbz	r4, 800149e <kprocess_info+0x156>
 8001496:	481d      	ldr	r0, [pc, #116]	; (800150c <kprocess_info+0x1c4>)
 8001498:	f7ff f960 	bl	800075c <printk>
 800149c:	e00a      	b.n	80014b4 <kprocess_info+0x16c>
 800149e:	481c      	ldr	r0, [pc, #112]	; (8001510 <kprocess_info+0x1c8>)
 80014a0:	990e      	ldr	r1, [sp, #56]	; 0x38
 80014a2:	9a0c      	ldr	r2, [sp, #48]	; 0x30
 80014a4:	f7ff f95a 	bl	800075c <printk>
 80014a8:	481a      	ldr	r0, [pc, #104]	; (8001514 <kprocess_info+0x1cc>)
 80014aa:	990d      	ldr	r1, [sp, #52]	; 0x34
 80014ac:	9a0f      	ldr	r2, [sp, #60]	; 0x3c
 80014ae:	9b0b      	ldr	r3, [sp, #44]	; 0x2c
 80014b0:	f7ff f954 	bl	800075c <printk>
 80014b4:	a801      	add	r0, sp, #4
 80014b6:	f000 f885 	bl	80015c4 <ksystime_get_uptime_internal>
 80014ba:	9a01      	ldr	r2, [sp, #4]
 80014bc:	233c      	movs	r3, #60	; 0x3c
 80014be:	fbb2 f1f3 	udiv	r1, r2, r3
 80014c2:	9c02      	ldr	r4, [sp, #8]
 80014c4:	fb03 2211 	mls	r2, r3, r1, r2
 80014c8:	f44f 737a 	mov.w	r3, #1000	; 0x3e8
 80014cc:	fbb4 f3f3 	udiv	r3, r4, r3
 80014d0:	4816      	ldr	r0, [pc, #88]	; (800152c <kprocess_info+0x1e4>)
 80014d2:	f7ff f943 	bl	800075c <printk>
 80014d6:	4810      	ldr	r0, [pc, #64]	; (8001518 <kprocess_info+0x1d0>)
 80014d8:	f7ff f940 	bl	800075c <printk>
 80014dc:	4804      	ldr	r0, [pc, #16]	; (80014f0 <kprocess_info+0x1a8>)
 80014de:	f7ff f93d 	bl	800075c <printk>
 80014e2:	b662      	cpsie	i
 80014e4:	b010      	add	sp, #64	; 0x40
 80014e6:	e8bd 81f0 	ldmia.w	sp!, {r4, r5, r6, r7, r8, pc}
 80014ea:	bf00      	nop
 80014ec:	080052b0 	.word	0x080052b0
 80014f0:	080052fb 	.word	0x080052fb
 80014f4:	20000020 	.word	0x20000020
 80014f8:	20000024 	.word	0x20000024
 80014fc:	08005346 	.word	0x08005346
 8001500:	2000000c 	.word	0x2000000c
 8001504:	0800535b 	.word	0x0800535b
 8001508:	08005268 	.word	0x08005268
 800150c:	0800526d 	.word	0x0800526d
 8001510:	0800537a 	.word	0x0800537a
 8001514:	08005386 	.word	0x08005386
 8001518:	08005472 	.word	0x08005472
 800151c:	0800512c 	.word	0x0800512c
 8001520:	08005394 	.word	0x08005394
 8001524:	20001e00 	.word	0x20001e00
 8001528:	08005262 	.word	0x08005262
 800152c:	080052a2 	.word	0x080052a2

08001530 <dlist_remove_head>:
 8001530:	6803      	ldr	r3, [r0, #0]
 8001532:	685a      	ldr	r2, [r3, #4]
 8001534:	429a      	cmp	r2, r3
 8001536:	bf17      	itett	ne
 8001538:	681b      	ldrne	r3, [r3, #0]
 800153a:	2300      	moveq	r3, #0
 800153c:	6013      	strne	r3, [r2, #0]
 800153e:	6803      	ldrne	r3, [r0, #0]
 8001540:	bf1f      	itttt	ne
 8001542:	685a      	ldrne	r2, [r3, #4]
 8001544:	681b      	ldrne	r3, [r3, #0]
 8001546:	605a      	strne	r2, [r3, #4]
 8001548:	6803      	ldrne	r3, [r0, #0]
 800154a:	bf18      	it	ne
 800154c:	685b      	ldrne	r3, [r3, #4]
 800154e:	6003      	str	r3, [r0, #0]
 8001550:	4770      	bx	lr
 8001552:	0000      	movs	r0, r0

08001554 <hpet_start_stub>:
 8001554:	b508      	push	{r3, lr}
 8001556:	4804      	ldr	r0, [pc, #16]	; (8001568 <hpet_start_stub+0x14>)
 8001558:	f7ff f900 	bl	800075c <printk>
 800155c:	e8bd 4008 	ldmia.w	sp!, {r3, lr}
 8001560:	f06f 000a 	mvn.w	r0, #10
 8001564:	f7ff be42 	b.w	80011ec <kprocess_error_current>
 8001568:	080053a6 	.word	0x080053a6

0800156c <hpet_stop_stub>:
 800156c:	b508      	push	{r3, lr}
 800156e:	4804      	ldr	r0, [pc, #16]	; (8001580 <hpet_stop_stub+0x14>)
 8001570:	f7ff f8f4 	bl	800075c <printk>
 8001574:	e8bd 4008 	ldmia.w	sp!, {r3, lr}
 8001578:	f06f 000a 	mvn.w	r0, #10
 800157c:	f7ff be36 	b.w	80011ec <kprocess_error_current>
 8001580:	080053c7 	.word	0x080053c7

08001584 <hpet_elapsed_stub>:
 8001584:	b508      	push	{r3, lr}
 8001586:	4804      	ldr	r0, [pc, #16]	; (8001598 <hpet_elapsed_stub+0x14>)
 8001588:	f7ff f8e8 	bl	800075c <printk>
 800158c:	f06f 000a 	mvn.w	r0, #10
 8001590:	f7ff fe2c 	bl	80011ec <kprocess_error_current>
 8001594:	2000      	movs	r0, #0
 8001596:	bd08      	pop	{r3, pc}
 8001598:	080053e7 	.word	0x080053e7

0800159c <ksystime_soft_timer_timeout>:
 800159c:	b57f      	push	{r0, r1, r2, r3, r4, r5, r6, lr}
 800159e:	69c3      	ldr	r3, [r0, #28]
 80015a0:	9004      	str	r0, [sp, #16]
 80015a2:	9301      	str	r3, [sp, #4]
 80015a4:	f890 3024 	ldrb.w	r3, [r0, #36]	; 0x24
 80015a8:	f06f 0102 	mvn.w	r1, #2
 80015ac:	041b      	lsls	r3, r3, #16
 80015ae:	f043 0302 	orr.w	r3, r3, #2
 80015b2:	9302      	str	r3, [sp, #8]
 80015b4:	6a03      	ldr	r3, [r0, #32]
 80015b6:	a801      	add	r0, sp, #4
 80015b8:	9303      	str	r3, [sp, #12]
 80015ba:	f000 fa3b 	bl	8001a34 <kipc_post_process>
 80015be:	b007      	add	sp, #28
 80015c0:	f85d fb04 	ldr.w	pc, [sp], #4

080015c4 <ksystime_get_uptime_internal>:
 80015c4:	b538      	push	{r3, r4, r5, lr}
 80015c6:	4b09      	ldr	r3, [pc, #36]	; (80015ec <ksystime_get_uptime_internal+0x28>)
 80015c8:	4605      	mov	r5, r0
 80015ca:	f8d3 2100 	ldr.w	r2, [r3, #256]	; 0x100
 80015ce:	f8d3 4104 	ldr.w	r4, [r3, #260]	; 0x104
 80015d2:	6002      	str	r2, [r0, #0]
 80015d4:	f8d3 2110 	ldr.w	r2, [r3, #272]	; 0x110
 80015d8:	f8d3 0114 	ldr.w	r0, [r3, #276]	; 0x114
 80015dc:	4790      	blx	r2
 80015de:	4b04      	ldr	r3, [pc, #16]	; (80015f0 <ksystime_get_uptime_internal+0x2c>)
 80015e0:	4420      	add	r0, r4
 80015e2:	4298      	cmp	r0, r3
 80015e4:	bf94      	ite	ls
 80015e6:	6068      	strls	r0, [r5, #4]
 80015e8:	606b      	strhi	r3, [r5, #4]
 80015ea:	bd38      	pop	{r3, r4, r5, pc}
 80015ec:	2000000c 	.word	0x2000000c
 80015f0:	000f423f 	.word	0x000f423f

080015f4 <find_shoot_next>:
 80015f4:	b51f      	push	{r0, r1, r2, r3, r4, lr}
 80015f6:	2300      	movs	r3, #0
 80015f8:	9301      	str	r3, [sp, #4]
 80015fa:	b672      	cpsid	i
 80015fc:	4c28      	ldr	r4, [pc, #160]	; (80016a0 <find_shoot_next+0xac>)
 80015fe:	f8d4 3118 	ldr.w	r3, [r4, #280]	; 0x118
 8001602:	2b00      	cmp	r3, #0
 8001604:	d040      	beq.n	8001688 <find_shoot_next+0x94>
 8001606:	a802      	add	r0, sp, #8
 8001608:	f7ff ffdc 	bl	80015c4 <ksystime_get_uptime_internal>
 800160c:	f8d4 0118 	ldr.w	r0, [r4, #280]	; 0x118
 8001610:	a902      	add	r1, sp, #8
 8001612:	3008      	adds	r0, #8
 8001614:	f003 f985 	bl	8004922 <systime_compare>
 8001618:	2800      	cmp	r0, #0
 800161a:	db13      	blt.n	8001644 <find_shoot_next+0x50>
 800161c:	f8d4 4118 	ldr.w	r4, [r4, #280]	; 0x118
 8001620:	2300      	movs	r3, #0
 8001622:	7623      	strb	r3, [r4, #24]
 8001624:	481f      	ldr	r0, [pc, #124]	; (80016a4 <find_shoot_next+0xb0>)
 8001626:	f7ff ff83 	bl	8001530 <dlist_remove_head>
 800162a:	9b01      	ldr	r3, [sp, #4]
 800162c:	b91b      	cbnz	r3, 8001636 <find_shoot_next+0x42>
 800162e:	9401      	str	r4, [sp, #4]
 8001630:	6064      	str	r4, [r4, #4]
 8001632:	6024      	str	r4, [r4, #0]
 8001634:	e7e2      	b.n	80015fc <find_shoot_next+0x8>
 8001636:	681a      	ldr	r2, [r3, #0]
 8001638:	6063      	str	r3, [r4, #4]
 800163a:	6022      	str	r2, [r4, #0]
 800163c:	681a      	ldr	r2, [r3, #0]
 800163e:	6054      	str	r4, [r2, #4]
 8001640:	601c      	str	r4, [r3, #0]
 8001642:	e7db      	b.n	80015fc <find_shoot_next+0x8>
 8001644:	f8d4 3118 	ldr.w	r3, [r4, #280]	; 0x118
 8001648:	689a      	ldr	r2, [r3, #8]
 800164a:	9b02      	ldr	r3, [sp, #8]
 800164c:	429a      	cmp	r2, r3
 800164e:	d11b      	bne.n	8001688 <find_shoot_next+0x94>
 8001650:	f8d4 3110 	ldr.w	r3, [r4, #272]	; 0x110
 8001654:	f8d4 0114 	ldr.w	r0, [r4, #276]	; 0x114
 8001658:	4798      	blx	r3
 800165a:	f8d4 3104 	ldr.w	r3, [r4, #260]	; 0x104
 800165e:	4418      	add	r0, r3
 8001660:	f8c4 0104 	str.w	r0, [r4, #260]	; 0x104
 8001664:	f8d4 310c 	ldr.w	r3, [r4, #268]	; 0x10c
 8001668:	f8d4 0114 	ldr.w	r0, [r4, #276]	; 0x114
 800166c:	4798      	blx	r3
 800166e:	f8d4 3118 	ldr.w	r3, [r4, #280]	; 0x118
 8001672:	f8d4 0104 	ldr.w	r0, [r4, #260]	; 0x104
 8001676:	68db      	ldr	r3, [r3, #12]
 8001678:	f8d4 1114 	ldr.w	r1, [r4, #276]	; 0x114
 800167c:	1a18      	subs	r0, r3, r0
 800167e:	f8c4 011c 	str.w	r0, [r4, #284]	; 0x11c
 8001682:	f8d4 3108 	ldr.w	r3, [r4, #264]	; 0x108
 8001686:	4798      	blx	r3
 8001688:	b662      	cpsie	i
 800168a:	9c01      	ldr	r4, [sp, #4]
 800168c:	b134      	cbz	r4, 800169c <find_shoot_next+0xa8>
 800168e:	a801      	add	r0, sp, #4
 8001690:	f7ff ff4e 	bl	8001530 <dlist_remove_head>
 8001694:	6923      	ldr	r3, [r4, #16]
 8001696:	6960      	ldr	r0, [r4, #20]
 8001698:	4798      	blx	r3
 800169a:	e7f6      	b.n	800168a <find_shoot_next+0x96>
 800169c:	b004      	add	sp, #16
 800169e:	bd10      	pop	{r4, pc}
 80016a0:	2000000c 	.word	0x2000000c
 80016a4:	20000124 	.word	0x20000124

080016a8 <ksystime_get_uptime>:
 80016a8:	b508      	push	{r3, lr}
 80016aa:	b672      	cpsid	i
 80016ac:	f7ff ff8a 	bl	80015c4 <ksystime_get_uptime_internal>
 80016b0:	b662      	cpsie	i
 80016b2:	bd08      	pop	{r3, pc}

080016b4 <ksystime_second_pulse>:
 80016b4:	b538      	push	{r3, r4, r5, lr}
 80016b6:	b672      	cpsid	i
 80016b8:	4c0d      	ldr	r4, [pc, #52]	; (80016f0 <ksystime_second_pulse+0x3c>)
 80016ba:	2500      	movs	r5, #0
 80016bc:	f8d4 3100 	ldr.w	r3, [r4, #256]	; 0x100
 80016c0:	f8d4 0114 	ldr.w	r0, [r4, #276]	; 0x114
 80016c4:	3301      	adds	r3, #1
 80016c6:	f8c4 3100 	str.w	r3, [r4, #256]	; 0x100
 80016ca:	f8c4 511c 	str.w	r5, [r4, #284]	; 0x11c
 80016ce:	f8d4 310c 	ldr.w	r3, [r4, #268]	; 0x10c
 80016d2:	4798      	blx	r3
 80016d4:	f8d4 3108 	ldr.w	r3, [r4, #264]	; 0x108
 80016d8:	4806      	ldr	r0, [pc, #24]	; (80016f4 <ksystime_second_pulse+0x40>)
 80016da:	f8d4 1114 	ldr.w	r1, [r4, #276]	; 0x114
 80016de:	4798      	blx	r3
 80016e0:	f8c4 5104 	str.w	r5, [r4, #260]	; 0x104
 80016e4:	b662      	cpsie	i
 80016e6:	e8bd 4038 	ldmia.w	sp!, {r3, r4, r5, lr}
 80016ea:	f7ff bf83 	b.w	80015f4 <find_shoot_next>
 80016ee:	bf00      	nop
 80016f0:	2000000c 	.word	0x2000000c
 80016f4:	001e8480 	.word	0x001e8480

080016f8 <ksystime_hpet_timeout>:
 80016f8:	b508      	push	{r3, lr}
 80016fa:	b672      	cpsid	i
 80016fc:	4b0a      	ldr	r3, [pc, #40]	; (8001728 <ksystime_hpet_timeout+0x30>)
 80016fe:	480b      	ldr	r0, [pc, #44]	; (800172c <ksystime_hpet_timeout+0x34>)
 8001700:	f8d3 111c 	ldr.w	r1, [r3, #284]	; 0x11c
 8001704:	f8d3 2104 	ldr.w	r2, [r3, #260]	; 0x104
 8001708:	440a      	add	r2, r1
 800170a:	f8c3 2104 	str.w	r2, [r3, #260]	; 0x104
 800170e:	2200      	movs	r2, #0
 8001710:	f8c3 211c 	str.w	r2, [r3, #284]	; 0x11c
 8001714:	f8d3 1114 	ldr.w	r1, [r3, #276]	; 0x114
 8001718:	f8d3 2108 	ldr.w	r2, [r3, #264]	; 0x108
 800171c:	4790      	blx	r2
 800171e:	b662      	cpsie	i
 8001720:	e8bd 4008 	ldmia.w	sp!, {r3, lr}
 8001724:	f7ff bf66 	b.w	80015f4 <find_shoot_next>
 8001728:	2000000c 	.word	0x2000000c
 800172c:	001e8480 	.word	0x001e8480

08001730 <ksystime_hpet_setup>:
 8001730:	4b0d      	ldr	r3, [pc, #52]	; (8001768 <ksystime_hpet_setup+0x38>)
 8001732:	b530      	push	{r4, r5, lr}
 8001734:	4a0d      	ldr	r2, [pc, #52]	; (800176c <ksystime_hpet_setup+0x3c>)
 8001736:	f8d3 5108 	ldr.w	r5, [r3, #264]	; 0x108
 800173a:	4295      	cmp	r5, r2
 800173c:	d10e      	bne.n	800175c <ksystime_hpet_setup+0x2c>
 800173e:	6802      	ldr	r2, [r0, #0]
 8001740:	6845      	ldr	r5, [r0, #4]
 8001742:	6880      	ldr	r0, [r0, #8]
 8001744:	f8c3 510c 	str.w	r5, [r3, #268]	; 0x10c
 8001748:	f8c3 0110 	str.w	r0, [r3, #272]	; 0x110
 800174c:	f8c3 2108 	str.w	r2, [r3, #264]	; 0x108
 8001750:	f8c3 1114 	str.w	r1, [r3, #276]	; 0x114
 8001754:	4806      	ldr	r0, [pc, #24]	; (8001770 <ksystime_hpet_setup+0x40>)
 8001756:	e8bd 4030 	ldmia.w	sp!, {r4, r5, lr}
 800175a:	4710      	bx	r2
 800175c:	f06f 0008 	mvn.w	r0, #8
 8001760:	e8bd 4030 	ldmia.w	sp!, {r4, r5, lr}
 8001764:	f7ff bd42 	b.w	80011ec <kprocess_error_current>
 8001768:	2000000c 	.word	0x2000000c
 800176c:	08001555 	.word	0x08001555
 8001770:	001e8480 	.word	0x001e8480

08001774 <ksystime_timer_start_internal>:
 8001774:	e92d 43f7 	stmdb	sp!, {r0, r1, r2, r4, r5, r6, r7, r8, r9, lr}
 8001778:	460d      	mov	r5, r1
 800177a:	4604      	mov	r4, r0
 800177c:	4668      	mov	r0, sp
 800177e:	f7ff ff93 	bl	80016a8 <ksystime_get_uptime>
 8001782:	682b      	ldr	r3, [r5, #0]
 8001784:	f104 0608 	add.w	r6, r4, #8
 8001788:	60a3      	str	r3, [r4, #8]
 800178a:	686b      	ldr	r3, [r5, #4]
 800178c:	4668      	mov	r0, sp
 800178e:	60e3      	str	r3, [r4, #12]
 8001790:	4631      	mov	r1, r6
 8001792:	4632      	mov	r2, r6
 8001794:	f003 f8cb 	bl	800492e <systime_add>
 8001798:	b672      	cpsid	i
 800179a:	4b23      	ldr	r3, [pc, #140]	; (8001828 <ksystime_timer_start_internal+0xb4>)
 800179c:	681f      	ldr	r7, [r3, #0]
 800179e:	463d      	mov	r5, r7
 80017a0:	f117 0900 	adds.w	r9, r7, #0
 80017a4:	bf18      	it	ne
 80017a6:	f04f 0901 	movne.w	r9, #1
 80017aa:	f1b9 0f00 	cmp.w	r9, #0
 80017ae:	d023      	beq.n	80017f8 <ksystime_timer_start_internal+0x84>
 80017b0:	f8d5 8004 	ldr.w	r8, [r5, #4]
 80017b4:	f105 0008 	add.w	r0, r5, #8
 80017b8:	ebb8 0907 	subs.w	r9, r8, r7
 80017bc:	4631      	mov	r1, r6
 80017be:	bf18      	it	ne
 80017c0:	f04f 0901 	movne.w	r9, #1
 80017c4:	f003 f8ad 	bl	8004922 <systime_compare>
 80017c8:	2800      	cmp	r0, #0
 80017ca:	da13      	bge.n	80017f4 <ksystime_timer_start_internal+0x80>
 80017cc:	4b16      	ldr	r3, [pc, #88]	; (8001828 <ksystime_timer_start_internal+0xb4>)
 80017ce:	681a      	ldr	r2, [r3, #0]
 80017d0:	6065      	str	r5, [r4, #4]
 80017d2:	4295      	cmp	r5, r2
 80017d4:	d108      	bne.n	80017e8 <ksystime_timer_start_internal+0x74>
 80017d6:	681a      	ldr	r2, [r3, #0]
 80017d8:	6812      	ldr	r2, [r2, #0]
 80017da:	6022      	str	r2, [r4, #0]
 80017dc:	681a      	ldr	r2, [r3, #0]
 80017de:	6812      	ldr	r2, [r2, #0]
 80017e0:	6054      	str	r4, [r2, #4]
 80017e2:	681a      	ldr	r2, [r3, #0]
 80017e4:	6014      	str	r4, [r2, #0]
 80017e6:	e016      	b.n	8001816 <ksystime_timer_start_internal+0xa2>
 80017e8:	682b      	ldr	r3, [r5, #0]
 80017ea:	6023      	str	r3, [r4, #0]
 80017ec:	682b      	ldr	r3, [r5, #0]
 80017ee:	605c      	str	r4, [r3, #4]
 80017f0:	602c      	str	r4, [r5, #0]
 80017f2:	e011      	b.n	8001818 <ksystime_timer_start_internal+0xa4>
 80017f4:	4645      	mov	r5, r8
 80017f6:	e7d8      	b.n	80017aa <ksystime_timer_start_internal+0x36>
 80017f8:	4b0b      	ldr	r3, [pc, #44]	; (8001828 <ksystime_timer_start_internal+0xb4>)
 80017fa:	681a      	ldr	r2, [r3, #0]
 80017fc:	b91a      	cbnz	r2, 8001806 <ksystime_timer_start_internal+0x92>
 80017fe:	601c      	str	r4, [r3, #0]
 8001800:	6024      	str	r4, [r4, #0]
 8001802:	6064      	str	r4, [r4, #4]
 8001804:	e008      	b.n	8001818 <ksystime_timer_start_internal+0xa4>
 8001806:	6062      	str	r2, [r4, #4]
 8001808:	681a      	ldr	r2, [r3, #0]
 800180a:	6812      	ldr	r2, [r2, #0]
 800180c:	6022      	str	r2, [r4, #0]
 800180e:	681a      	ldr	r2, [r3, #0]
 8001810:	6812      	ldr	r2, [r2, #0]
 8001812:	6054      	str	r4, [r2, #4]
 8001814:	681b      	ldr	r3, [r3, #0]
 8001816:	601c      	str	r4, [r3, #0]
 8001818:	2301      	movs	r3, #1
 800181a:	7623      	strb	r3, [r4, #24]
 800181c:	b662      	cpsie	i
 800181e:	f7ff fee9 	bl	80015f4 <find_shoot_next>
 8001822:	b003      	add	sp, #12
 8001824:	e8bd 83f0 	ldmia.w	sp!, {r4, r5, r6, r7, r8, r9, pc}
 8001828:	20000124 	.word	0x20000124

0800182c <ksystime_timer_stop_internal>:
 800182c:	7e03      	ldrb	r3, [r0, #24]
 800182e:	b570      	push	{r4, r5, r6, lr}
 8001830:	4605      	mov	r5, r0
 8001832:	b173      	cbz	r3, 8001852 <ksystime_timer_stop_internal+0x26>
 8001834:	4c07      	ldr	r4, [pc, #28]	; (8001854 <ksystime_timer_stop_internal+0x28>)
 8001836:	6826      	ldr	r6, [r4, #0]
 8001838:	4286      	cmp	r6, r0
 800183a:	d103      	bne.n	8001844 <ksystime_timer_stop_internal+0x18>
 800183c:	4620      	mov	r0, r4
 800183e:	f7ff fe77 	bl	8001530 <dlist_remove_head>
 8001842:	e004      	b.n	800184e <ksystime_timer_stop_internal+0x22>
 8001844:	6020      	str	r0, [r4, #0]
 8001846:	4620      	mov	r0, r4
 8001848:	f7ff fe72 	bl	8001530 <dlist_remove_head>
 800184c:	6026      	str	r6, [r4, #0]
 800184e:	2300      	movs	r3, #0
 8001850:	762b      	strb	r3, [r5, #24]
 8001852:	bd70      	pop	{r4, r5, r6, pc}
 8001854:	20000124 	.word	0x20000124

08001858 <ksystime_timer_init_internal>:
 8001858:	2300      	movs	r3, #0
 800185a:	6101      	str	r1, [r0, #16]
 800185c:	6142      	str	r2, [r0, #20]
 800185e:	7603      	strb	r3, [r0, #24]
 8001860:	4770      	bx	lr
 8001862:	0000      	movs	r0, r0

08001864 <ksystime_soft_timer_create>:
 8001864:	b5f8      	push	{r3, r4, r5, r6, r7, lr}
 8001866:	4607      	mov	r7, r0
 8001868:	460e      	mov	r6, r1
 800186a:	4615      	mov	r5, r2
 800186c:	f7ff fb68 	bl	8000f40 <kprocess_get_current>
 8001870:	4604      	mov	r4, r0
 8001872:	b672      	cpsid	i
 8001874:	2028      	movs	r0, #40	; 0x28
 8001876:	f7ff f8b1 	bl	80009dc <kmalloc>
 800187a:	6038      	str	r0, [r7, #0]
 800187c:	b662      	cpsie	i
 800187e:	b930      	cbnz	r0, 800188e <ksystime_soft_timer_create+0x2a>
 8001880:	4620      	mov	r0, r4
 8001882:	e8bd 40f8 	ldmia.w	sp!, {r3, r4, r5, r6, r7, lr}
 8001886:	f06f 01c9 	mvn.w	r1, #201	; 0xc9
 800188a:	f7ff bc99 	b.w	80011c0 <kprocess_error>
 800188e:	4b05      	ldr	r3, [pc, #20]	; (80018a4 <ksystime_soft_timer_create+0x40>)
 8001890:	61c4      	str	r4, [r0, #28]
 8001892:	6103      	str	r3, [r0, #16]
 8001894:	2300      	movs	r3, #0
 8001896:	6206      	str	r6, [r0, #32]
 8001898:	f880 5024 	strb.w	r5, [r0, #36]	; 0x24
 800189c:	6140      	str	r0, [r0, #20]
 800189e:	7603      	strb	r3, [r0, #24]
 80018a0:	bdf8      	pop	{r3, r4, r5, r6, r7, pc}
 80018a2:	bf00      	nop
 80018a4:	0800159d 	.word	0x0800159d

080018a8 <ksystime_soft_timer_destroy>:
 80018a8:	1c42      	adds	r2, r0, #1
 80018aa:	b508      	push	{r3, lr}
 80018ac:	4603      	mov	r3, r0
 80018ae:	d011      	beq.n	80018d4 <ksystime_soft_timer_destroy+0x2c>
 80018b0:	3303      	adds	r3, #3
 80018b2:	2b02      	cmp	r3, #2
 80018b4:	d80a      	bhi.n	80018cc <ksystime_soft_timer_destroy+0x24>
 80018b6:	f7ff fb43 	bl	8000f40 <kprocess_get_current>
 80018ba:	f7ff fb3d 	bl	8000f38 <kprocess_name>
 80018be:	4906      	ldr	r1, [pc, #24]	; (80018d8 <ksystime_soft_timer_destroy+0x30>)
 80018c0:	4603      	mov	r3, r0
 80018c2:	22d6      	movs	r2, #214	; 0xd6
 80018c4:	4805      	ldr	r0, [pc, #20]	; (80018dc <ksystime_soft_timer_destroy+0x34>)
 80018c6:	f7fe ff49 	bl	800075c <printk>
 80018ca:	e7fe      	b.n	80018ca <ksystime_soft_timer_destroy+0x22>
 80018cc:	b672      	cpsid	i
 80018ce:	f7ff f893 	bl	80009f8 <kfree>
 80018d2:	b662      	cpsie	i
 80018d4:	bd08      	pop	{r3, pc}
 80018d6:	bf00      	nop
 80018d8:	0800540a 	.word	0x0800540a
 80018dc:	080051bc 	.word	0x080051bc

080018e0 <ksystime_soft_timer_start>:
 80018e0:	b538      	push	{r3, r4, r5, lr}
 80018e2:	4604      	mov	r4, r0
 80018e4:	460d      	mov	r5, r1
 80018e6:	f7ff fb2b 	bl	8000f40 <kprocess_get_current>
 80018ea:	1ce3      	adds	r3, r4, #3
 80018ec:	2b02      	cmp	r3, #2
 80018ee:	d80a      	bhi.n	8001906 <ksystime_soft_timer_start+0x26>
 80018f0:	f7ff fb26 	bl	8000f40 <kprocess_get_current>
 80018f4:	f7ff fb20 	bl	8000f38 <kprocess_name>
 80018f8:	490b      	ldr	r1, [pc, #44]	; (8001928 <ksystime_soft_timer_start+0x48>)
 80018fa:	4603      	mov	r3, r0
 80018fc:	22e2      	movs	r2, #226	; 0xe2
 80018fe:	480b      	ldr	r0, [pc, #44]	; (800192c <ksystime_soft_timer_start+0x4c>)
 8001900:	f7fe ff2c 	bl	800075c <printk>
 8001904:	e7fe      	b.n	8001904 <ksystime_soft_timer_start+0x24>
 8001906:	b672      	cpsid	i
 8001908:	b662      	cpsie	i
 800190a:	7e23      	ldrb	r3, [r4, #24]
 800190c:	b12b      	cbz	r3, 800191a <ksystime_soft_timer_start+0x3a>
 800190e:	e8bd 4038 	ldmia.w	sp!, {r3, r4, r5, lr}
 8001912:	f06f 0105 	mvn.w	r1, #5
 8001916:	f7ff bc53 	b.w	80011c0 <kprocess_error>
 800191a:	4620      	mov	r0, r4
 800191c:	4629      	mov	r1, r5
 800191e:	e8bd 4038 	ldmia.w	sp!, {r3, r4, r5, lr}
 8001922:	f7ff bf27 	b.w	8001774 <ksystime_timer_start_internal>
 8001926:	bf00      	nop
 8001928:	0800540a 	.word	0x0800540a
 800192c:	080051bc 	.word	0x080051bc

08001930 <ksystime_soft_timer_stop>:
 8001930:	b508      	push	{r3, lr}
 8001932:	1cc3      	adds	r3, r0, #3
 8001934:	2b02      	cmp	r3, #2
 8001936:	d80a      	bhi.n	800194e <ksystime_soft_timer_stop+0x1e>
 8001938:	f7ff fb02 	bl	8000f40 <kprocess_get_current>
 800193c:	f7ff fafc 	bl	8000f38 <kprocess_name>
 8001940:	4905      	ldr	r1, [pc, #20]	; (8001958 <ksystime_soft_timer_stop+0x28>)
 8001942:	4603      	mov	r3, r0
 8001944:	22f2      	movs	r2, #242	; 0xf2
 8001946:	4805      	ldr	r0, [pc, #20]	; (800195c <ksystime_soft_timer_stop+0x2c>)
 8001948:	f7fe ff08 	bl	800075c <printk>
 800194c:	e7fe      	b.n	800194c <ksystime_soft_timer_stop+0x1c>
 800194e:	b672      	cpsid	i
 8001950:	f7ff ff6c 	bl	800182c <ksystime_timer_stop_internal>
 8001954:	b662      	cpsie	i
 8001956:	bd08      	pop	{r3, pc}
 8001958:	0800540a 	.word	0x0800540a
 800195c:	080051bc 	.word	0x080051bc

08001960 <ksystime_init>:
 8001960:	4b05      	ldr	r3, [pc, #20]	; (8001978 <ksystime_init+0x18>)
 8001962:	4a06      	ldr	r2, [pc, #24]	; (800197c <ksystime_init+0x1c>)
 8001964:	f8c3 2108 	str.w	r2, [r3, #264]	; 0x108
 8001968:	4a05      	ldr	r2, [pc, #20]	; (8001980 <ksystime_init+0x20>)
 800196a:	f8c3 210c 	str.w	r2, [r3, #268]	; 0x10c
 800196e:	4a05      	ldr	r2, [pc, #20]	; (8001984 <ksystime_init+0x24>)
 8001970:	f8c3 2110 	str.w	r2, [r3, #272]	; 0x110
 8001974:	4770      	bx	lr
 8001976:	bf00      	nop
 8001978:	2000000c 	.word	0x2000000c
 800197c:	08001555 	.word	0x08001555
 8001980:	0800156d 	.word	0x0800156d
 8001984:	08001585 	.word	0x08001585

08001988 <kipc_wait_process>:
 8001988:	4281      	cmp	r1, r0
 800198a:	b5f8      	push	{r3, r4, r5, r6, r7, lr}
 800198c:	4604      	mov	r4, r0
 800198e:	460d      	mov	r5, r1
 8001990:	4617      	mov	r7, r2
 8001992:	461e      	mov	r6, r3
 8001994:	d10c      	bne.n	80019b0 <kipc_wait_process+0x28>
 8001996:	f06f 0111 	mvn.w	r1, #17
 800199a:	f7ff fc11 	bl	80011c0 <kprocess_error>
 800199e:	4628      	mov	r0, r5
 80019a0:	f7ff faca 	bl	8000f38 <kprocess_name>
 80019a4:	e8bd 40f8 	ldmia.w	sp!, {r3, r4, r5, r6, r7, lr}
 80019a8:	4601      	mov	r1, r0
 80019aa:	481f      	ldr	r0, [pc, #124]	; (8001a28 <kipc_wait_process+0xa0>)
 80019ac:	f7fe bed6 	b.w	800075c <printk>
 80019b0:	2100      	movs	r1, #0
 80019b2:	2240      	movs	r2, #64	; 0x40
 80019b4:	4603      	mov	r3, r0
 80019b6:	f7ff fbb1 	bl	800111c <kprocess_sleep>
 80019ba:	b672      	cpsid	i
 80019bc:	68a2      	ldr	r2, [r4, #8]
 80019be:	f8d2 e01c 	ldr.w	lr, [r2, #28]
 80019c2:	6a13      	ldr	r3, [r2, #32]
 80019c4:	4573      	cmp	r3, lr
 80019c6:	d021      	beq.n	8001a0c <kipc_wait_process+0x84>
 80019c8:	2114      	movs	r1, #20
 80019ca:	4359      	muls	r1, r3
 80019cc:	f102 0028 	add.w	r0, r2, #40	; 0x28
 80019d0:	eb00 0c01 	add.w	ip, r0, r1
 80019d4:	5841      	ldr	r1, [r0, r1]
 80019d6:	42a9      	cmp	r1, r5
 80019d8:	d001      	beq.n	80019de <kipc_wait_process+0x56>
 80019da:	1ca9      	adds	r1, r5, #2
 80019dc:	d10e      	bne.n	80019fc <kipc_wait_process+0x74>
 80019de:	f8dc 1004 	ldr.w	r1, [ip, #4]
 80019e2:	42b9      	cmp	r1, r7
 80019e4:	d001      	beq.n	80019ea <kipc_wait_process+0x62>
 80019e6:	1c78      	adds	r0, r7, #1
 80019e8:	d108      	bne.n	80019fc <kipc_wait_process+0x74>
 80019ea:	f8dc 1008 	ldr.w	r1, [ip, #8]
 80019ee:	42b1      	cmp	r1, r6
 80019f0:	d102      	bne.n	80019f8 <kipc_wait_process+0x70>
 80019f2:	2b00      	cmp	r3, #0
 80019f4:	da0f      	bge.n	8001a16 <kipc_wait_process+0x8e>
 80019f6:	e00b      	b.n	8001a10 <kipc_wait_process+0x88>
 80019f8:	1cb1      	adds	r1, r6, #2
 80019fa:	d0fa      	beq.n	80019f2 <kipc_wait_process+0x6a>
 80019fc:	6a50      	ldr	r0, [r2, #36]	; 0x24
 80019fe:	1c59      	adds	r1, r3, #1
 8001a00:	4281      	cmp	r1, r0
 8001a02:	f04f 0300 	mov.w	r3, #0
 8001a06:	bf38      	it	cc
 8001a08:	460b      	movcc	r3, r1
 8001a0a:	e7db      	b.n	80019c4 <kipc_wait_process+0x3c>
 8001a0c:	f04f 33ff 	mov.w	r3, #4294967295
 8001a10:	64e5      	str	r5, [r4, #76]	; 0x4c
 8001a12:	6527      	str	r7, [r4, #80]	; 0x50
 8001a14:	6566      	str	r6, [r4, #84]	; 0x54
 8001a16:	b662      	cpsie	i
 8001a18:	2b00      	cmp	r3, #0
 8001a1a:	db04      	blt.n	8001a26 <kipc_wait_process+0x9e>
 8001a1c:	4620      	mov	r0, r4
 8001a1e:	e8bd 40f8 	ldmia.w	sp!, {r3, r4, r5, r6, r7, lr}
 8001a22:	f7ff bbb5 	b.w	8001190 <kprocess_wakeup>
 8001a26:	bdf8      	pop	{r3, r4, r5, r6, r7, pc}
 8001a28:	08005427 	.word	0x08005427

08001a2c <kipc_lock_release>:
 8001a2c:	f04f 33ff 	mov.w	r3, #4294967295
 8001a30:	64c3      	str	r3, [r0, #76]	; 0x4c
 8001a32:	4770      	bx	lr

08001a34 <kipc_post_process>:
 8001a34:	b5f7      	push	{r0, r1, r2, r4, r5, r6, r7, lr}
 8001a36:	6805      	ldr	r5, [r0, #0]
 8001a38:	4604      	mov	r4, r0
 8001a3a:	1ceb      	adds	r3, r5, #3
 8001a3c:	2b02      	cmp	r3, #2
 8001a3e:	460e      	mov	r6, r1
 8001a40:	d80a      	bhi.n	8001a58 <kipc_post_process+0x24>
 8001a42:	f7ff fa7d 	bl	8000f40 <kprocess_get_current>
 8001a46:	f7ff fa77 	bl	8000f38 <kprocess_name>
 8001a4a:	4943      	ldr	r1, [pc, #268]	; (8001b58 <kipc_post_process+0x124>)
 8001a4c:	4603      	mov	r3, r0
 8001a4e:	2242      	movs	r2, #66	; 0x42
 8001a50:	4842      	ldr	r0, [pc, #264]	; (8001b5c <kipc_post_process+0x128>)
 8001a52:	f7fe fe83 	bl	800075c <printk>
 8001a56:	e7fe      	b.n	8001a56 <kipc_post_process+0x22>
 8001a58:	6843      	ldr	r3, [r0, #4]
 8001a5a:	041a      	lsls	r2, r3, #16
 8001a5c:	d404      	bmi.n	8001a68 <kipc_post_process+0x34>
 8001a5e:	b672      	cpsid	i
 8001a60:	6ceb      	ldr	r3, [r5, #76]	; 0x4c
 8001a62:	42b3      	cmp	r3, r6
 8001a64:	d116      	bne.n	8001a94 <kipc_post_process+0x60>
 8001a66:	e017      	b.n	8001a98 <kipc_post_process+0x64>
 8001a68:	68c3      	ldr	r3, [r0, #12]
 8001a6a:	6818      	ldr	r0, [r3, #0]
 8001a6c:	1cc3      	adds	r3, r0, #3
 8001a6e:	2b02      	cmp	r3, #2
 8001a70:	d80a      	bhi.n	8001a88 <kipc_post_process+0x54>
 8001a72:	f7ff fa65 	bl	8000f40 <kprocess_get_current>
 8001a76:	f7ff fa5f 	bl	8000f38 <kprocess_name>
 8001a7a:	4937      	ldr	r1, [pc, #220]	; (8001b58 <kipc_post_process+0x124>)
 8001a7c:	4603      	mov	r3, r0
 8001a7e:	2247      	movs	r2, #71	; 0x47
 8001a80:	4836      	ldr	r0, [pc, #216]	; (8001b5c <kipc_post_process+0x128>)
 8001a82:	f7fe fe6b 	bl	800075c <printk>
 8001a86:	e7fe      	b.n	8001a86 <kipc_post_process+0x52>
 8001a88:	4629      	mov	r1, r5
 8001a8a:	f000 fc9a 	bl	80023c2 <kio_send>
 8001a8e:	2800      	cmp	r0, #0
 8001a90:	d1e5      	bne.n	8001a5e <kipc_post_process+0x2a>
 8001a92:	e05e      	b.n	8001b52 <kipc_post_process+0x11e>
 8001a94:	3302      	adds	r3, #2
 8001a96:	d10b      	bne.n	8001ab0 <kipc_post_process+0x7c>
 8001a98:	6d2b      	ldr	r3, [r5, #80]	; 0x50
 8001a9a:	6862      	ldr	r2, [r4, #4]
 8001a9c:	4293      	cmp	r3, r2
 8001a9e:	d001      	beq.n	8001aa4 <kipc_post_process+0x70>
 8001aa0:	3301      	adds	r3, #1
 8001aa2:	d105      	bne.n	8001ab0 <kipc_post_process+0x7c>
 8001aa4:	6d6b      	ldr	r3, [r5, #84]	; 0x54
 8001aa6:	68a2      	ldr	r2, [r4, #8]
 8001aa8:	4293      	cmp	r3, r2
 8001aaa:	d04d      	beq.n	8001b48 <kipc_post_process+0x114>
 8001aac:	3302      	adds	r3, #2
 8001aae:	d04b      	beq.n	8001b48 <kipc_post_process+0x114>
 8001ab0:	2000      	movs	r0, #0
 8001ab2:	68ab      	ldr	r3, [r5, #8]
 8001ab4:	f8d3 e01c 	ldr.w	lr, [r3, #28]
 8001ab8:	6a5f      	ldr	r7, [r3, #36]	; 0x24
 8001aba:	f10e 0101 	add.w	r1, lr, #1
 8001abe:	42b9      	cmp	r1, r7
 8001ac0:	bf34      	ite	cc
 8001ac2:	468c      	movcc	ip, r1
 8001ac4:	f04f 0c00 	movcs.w	ip, #0
 8001ac8:	6a1a      	ldr	r2, [r3, #32]
 8001aca:	4594      	cmp	ip, r2
 8001acc:	bf1d      	ittte	ne
 8001ace:	4661      	movne	r1, ip
 8001ad0:	4672      	movne	r2, lr
 8001ad2:	61d9      	strne	r1, [r3, #28]
 8001ad4:	f04f 32ff 	moveq.w	r2, #4294967295
 8001ad8:	b662      	cpsie	i
 8001ada:	2a00      	cmp	r2, #0
 8001adc:	db13      	blt.n	8001b06 <kipc_post_process+0xd2>
 8001ade:	2114      	movs	r1, #20
 8001ae0:	434a      	muls	r2, r1
 8001ae2:	6867      	ldr	r7, [r4, #4]
 8001ae4:	3328      	adds	r3, #40	; 0x28
 8001ae6:	1899      	adds	r1, r3, r2
 8001ae8:	604f      	str	r7, [r1, #4]
 8001aea:	68a7      	ldr	r7, [r4, #8]
 8001aec:	608f      	str	r7, [r1, #8]
 8001aee:	68e7      	ldr	r7, [r4, #12]
 8001af0:	6924      	ldr	r4, [r4, #16]
 8001af2:	60cf      	str	r7, [r1, #12]
 8001af4:	610c      	str	r4, [r1, #16]
 8001af6:	509e      	str	r6, [r3, r2]
 8001af8:	b358      	cbz	r0, 8001b52 <kipc_post_process+0x11e>
 8001afa:	4628      	mov	r0, r5
 8001afc:	b003      	add	sp, #12
 8001afe:	e8bd 40f0 	ldmia.w	sp!, {r4, r5, r6, r7, lr}
 8001b02:	f7ff bb45 	b.w	8001190 <kprocess_wakeup>
 8001b06:	f06f 010d 	mvn.w	r1, #13
 8001b0a:	4630      	mov	r0, r6
 8001b0c:	f7ff fb58 	bl	80011c0 <kprocess_error>
 8001b10:	4628      	mov	r0, r5
 8001b12:	f7ff fa11 	bl	8000f38 <kprocess_name>
 8001b16:	4601      	mov	r1, r0
 8001b18:	4811      	ldr	r0, [pc, #68]	; (8001b60 <kipc_post_process+0x12c>)
 8001b1a:	f7fe fe1f 	bl	800075c <printk>
 8001b1e:	1cf3      	adds	r3, r6, #3
 8001b20:	d103      	bne.n	8001b2a <kipc_post_process+0xf6>
 8001b22:	4810      	ldr	r0, [pc, #64]	; (8001b64 <kipc_post_process+0x130>)
 8001b24:	f7fe fe1a 	bl	800075c <printk>
 8001b28:	e006      	b.n	8001b38 <kipc_post_process+0x104>
 8001b2a:	4630      	mov	r0, r6
 8001b2c:	f7ff fa04 	bl	8000f38 <kprocess_name>
 8001b30:	4601      	mov	r1, r0
 8001b32:	480d      	ldr	r0, [pc, #52]	; (8001b68 <kipc_post_process+0x134>)
 8001b34:	f7fe fe12 	bl	800075c <printk>
 8001b38:	6923      	ldr	r3, [r4, #16]
 8001b3a:	1d21      	adds	r1, r4, #4
 8001b3c:	9300      	str	r3, [sp, #0]
 8001b3e:	480b      	ldr	r0, [pc, #44]	; (8001b6c <kipc_post_process+0x138>)
 8001b40:	c90e      	ldmia	r1, {r1, r2, r3}
 8001b42:	f7fe fe0b 	bl	800075c <printk>
 8001b46:	e7fe      	b.n	8001b46 <kipc_post_process+0x112>
 8001b48:	f04f 33ff 	mov.w	r3, #4294967295
 8001b4c:	64eb      	str	r3, [r5, #76]	; 0x4c
 8001b4e:	2001      	movs	r0, #1
 8001b50:	e7af      	b.n	8001ab2 <kipc_post_process+0x7e>
 8001b52:	b003      	add	sp, #12
 8001b54:	bdf0      	pop	{r4, r5, r6, r7, pc}
 8001b56:	bf00      	nop
 8001b58:	08005439 	.word	0x08005439
 8001b5c:	080051bc 	.word	0x080051bc
 8001b60:	08005452 	.word	0x08005452
 8001b64:	08005474 	.word	0x08005474
 8001b68:	08005484 	.word	0x08005484
 8001b6c:	08005490 	.word	0x08005490

08001b70 <kipc_init>:
 8001b70:	6883      	ldr	r3, [r0, #8]
 8001b72:	2200      	movs	r2, #0
 8001b74:	621a      	str	r2, [r3, #32]
 8001b76:	61da      	str	r2, [r3, #28]
 8001b78:	2207      	movs	r2, #7
 8001b7a:	625a      	str	r2, [r3, #36]	; 0x24
 8001b7c:	f04f 33ff 	mov.w	r3, #4294967295
 8001b80:	64c3      	str	r3, [r0, #76]	; 0x4c
 8001b82:	6503      	str	r3, [r0, #80]	; 0x50
 8001b84:	4770      	bx	lr

08001b86 <kipc_post>:
 8001b86:	b510      	push	{r4, lr}
 8001b88:	4604      	mov	r4, r0
 8001b8a:	f7ff f9d9 	bl	8000f40 <kprocess_get_current>
 8001b8e:	4601      	mov	r1, r0
 8001b90:	4620      	mov	r0, r4
 8001b92:	e8bd 4010 	ldmia.w	sp!, {r4, lr}
 8001b96:	f7ff bf4d 	b.w	8001a34 <kipc_post_process>

08001b9a <kipc_wait>:
 8001b9a:	b570      	push	{r4, r5, r6, lr}
 8001b9c:	460d      	mov	r5, r1
 8001b9e:	4614      	mov	r4, r2
 8001ba0:	4606      	mov	r6, r0
 8001ba2:	f7ff f9cd 	bl	8000f40 <kprocess_get_current>
 8001ba6:	4631      	mov	r1, r6
 8001ba8:	462a      	mov	r2, r5
 8001baa:	4623      	mov	r3, r4
 8001bac:	e8bd 4070 	ldmia.w	sp!, {r4, r5, r6, lr}
 8001bb0:	f7ff beea 	b.w	8001988 <kipc_wait_process>

08001bb4 <kipc_call>:
 8001bb4:	b570      	push	{r4, r5, r6, lr}
 8001bb6:	4604      	mov	r4, r0
 8001bb8:	f7ff f9c2 	bl	8000f40 <kprocess_get_current>
 8001bbc:	4605      	mov	r5, r0
 8001bbe:	4620      	mov	r0, r4
 8001bc0:	4629      	mov	r1, r5
 8001bc2:	f7ff ff37 	bl	8001a34 <kipc_post_process>
 8001bc6:	6862      	ldr	r2, [r4, #4]
 8001bc8:	4628      	mov	r0, r5
 8001bca:	6821      	ldr	r1, [r4, #0]
 8001bcc:	68a3      	ldr	r3, [r4, #8]
 8001bce:	f022 4200 	bic.w	r2, r2, #2147483648	; 0x80000000
 8001bd2:	e8bd 4070 	ldmia.w	sp!, {r4, r5, r6, lr}
 8001bd6:	f7ff bed7 	b.w	8001988 <kipc_wait_process>

08001bda <rb_is_full>:
 8001bda:	6803      	ldr	r3, [r0, #0]
 8001bdc:	6882      	ldr	r2, [r0, #8]
 8001bde:	3301      	adds	r3, #1
 8001be0:	4293      	cmp	r3, r2
 8001be2:	bf28      	it	cs
 8001be4:	2300      	movcs	r3, #0
 8001be6:	6840      	ldr	r0, [r0, #4]
 8001be8:	1a1b      	subs	r3, r3, r0
 8001bea:	4258      	negs	r0, r3
 8001bec:	4158      	adcs	r0, r3
 8001bee:	4770      	bx	lr

08001bf0 <dlist_remove_head>:
 8001bf0:	6803      	ldr	r3, [r0, #0]
 8001bf2:	685a      	ldr	r2, [r3, #4]
 8001bf4:	429a      	cmp	r2, r3
 8001bf6:	bf17      	itett	ne
 8001bf8:	681b      	ldrne	r3, [r3, #0]
 8001bfa:	2300      	moveq	r3, #0
 8001bfc:	6013      	strne	r3, [r2, #0]
 8001bfe:	6803      	ldrne	r3, [r0, #0]
 8001c00:	bf1f      	itttt	ne
 8001c02:	685a      	ldrne	r2, [r3, #4]
 8001c04:	681b      	ldrne	r3, [r3, #0]
 8001c06:	605a      	strne	r2, [r3, #4]
 8001c08:	6803      	ldrne	r3, [r0, #0]
 8001c0a:	bf18      	it	ne
 8001c0c:	685b      	ldrne	r3, [r3, #4]
 8001c0e:	6003      	str	r3, [r0, #0]
 8001c10:	4770      	bx	lr

08001c12 <dlist_remove>:
 8001c12:	b538      	push	{r3, r4, r5, lr}
 8001c14:	6805      	ldr	r5, [r0, #0]
 8001c16:	4604      	mov	r4, r0
 8001c18:	428d      	cmp	r5, r1
 8001c1a:	d103      	bne.n	8001c24 <dlist_remove+0x12>
 8001c1c:	e8bd 4038 	ldmia.w	sp!, {r3, r4, r5, lr}
 8001c20:	f7ff bfe6 	b.w	8001bf0 <dlist_remove_head>
 8001c24:	6001      	str	r1, [r0, #0]
 8001c26:	f7ff ffe3 	bl	8001bf0 <dlist_remove_head>
 8001c2a:	6025      	str	r5, [r4, #0]
 8001c2c:	bd38      	pop	{r3, r4, r5, pc}

08001c2e <kstream_destroy_handle.isra.2>:
 8001c2e:	b570      	push	{r4, r5, r6, lr}
 8001c30:	4606      	mov	r6, r0
 8001c32:	460d      	mov	r5, r1
 8001c34:	6833      	ldr	r3, [r6, #0]
 8001c36:	b17b      	cbz	r3, 8001c58 <kstream_destroy_handle.isra.2+0x2a>
 8001c38:	682c      	ldr	r4, [r5, #0]
 8001c3a:	f04f 33ff 	mov.w	r3, #4294967295
 8001c3e:	60a3      	str	r3, [r4, #8]
 8001c40:	4628      	mov	r0, r5
 8001c42:	f7ff ffd5 	bl	8001bf0 <dlist_remove_head>
 8001c46:	68e0      	ldr	r0, [r4, #12]
 8001c48:	f7ff faa2 	bl	8001190 <kprocess_wakeup>
 8001c4c:	68e0      	ldr	r0, [r4, #12]
 8001c4e:	f06f 0109 	mvn.w	r1, #9
 8001c52:	f7ff fab5 	bl	80011c0 <kprocess_error>
 8001c56:	e7ed      	b.n	8001c34 <kstream_destroy_handle.isra.2+0x6>
 8001c58:	bd70      	pop	{r4, r5, r6, pc}

08001c5a <kstream_get_size_internal>:
 8001c5a:	b510      	push	{r4, lr}
 8001c5c:	4604      	mov	r4, r0
 8001c5e:	f7ff ffbc 	bl	8001bda <rb_is_full>
 8001c62:	b180      	cbz	r0, 8001c86 <kstream_get_size_internal+0x2c>
 8001c64:	6922      	ldr	r2, [r4, #16]
 8001c66:	68a0      	ldr	r0, [r4, #8]
 8001c68:	4613      	mov	r3, r2
 8001c6a:	1c14      	adds	r4, r2, #0
 8001c6c:	f100 30ff 	add.w	r0, r0, #4294967295
 8001c70:	bf18      	it	ne
 8001c72:	2401      	movne	r4, #1
 8001c74:	b184      	cbz	r4, 8001c98 <kstream_get_size_internal+0x3e>
 8001c76:	6859      	ldr	r1, [r3, #4]
 8001c78:	699b      	ldr	r3, [r3, #24]
 8001c7a:	1a8c      	subs	r4, r1, r2
 8001c7c:	4418      	add	r0, r3
 8001c7e:	bf18      	it	ne
 8001c80:	2401      	movne	r4, #1
 8001c82:	460b      	mov	r3, r1
 8001c84:	e7f6      	b.n	8001c74 <kstream_get_size_internal+0x1a>
 8001c86:	e894 0009 	ldmia.w	r4, {r0, r3}
 8001c8a:	4283      	cmp	r3, r0
 8001c8c:	bf82      	ittt	hi
 8001c8e:	68a2      	ldrhi	r2, [r4, #8]
 8001c90:	1880      	addhi	r0, r0, r2
 8001c92:	f100 30ff 	addhi.w	r0, r0, #4294967295
 8001c96:	1ac0      	subs	r0, r0, r3
 8001c98:	bd10      	pop	{r4, pc}
 8001c9a:	0000      	movs	r0, r0

08001c9c <kstream_lock_release>:
 8001c9c:	1cc3      	adds	r3, r0, #3
 8001c9e:	2b02      	cmp	r3, #2
 8001ca0:	b510      	push	{r4, lr}
 8001ca2:	4604      	mov	r4, r0
 8001ca4:	d80a      	bhi.n	8001cbc <kstream_lock_release+0x20>
 8001ca6:	f7ff f94b 	bl	8000f40 <kprocess_get_current>
 8001caa:	f7ff f945 	bl	8000f38 <kprocess_name>
 8001cae:	490b      	ldr	r1, [pc, #44]	; (8001cdc <kstream_lock_release+0x40>)
 8001cb0:	4603      	mov	r3, r0
 8001cb2:	2237      	movs	r2, #55	; 0x37
 8001cb4:	480a      	ldr	r0, [pc, #40]	; (8001ce0 <kstream_lock_release+0x44>)
 8001cb6:	f7fe fd51 	bl	800075c <printk>
 8001cba:	e7fe      	b.n	8001cba <kstream_lock_release+0x1e>
 8001cbc:	7c03      	ldrb	r3, [r0, #16]
 8001cbe:	2b01      	cmp	r3, #1
 8001cc0:	d004      	beq.n	8001ccc <kstream_lock_release+0x30>
 8001cc2:	2b02      	cmp	r3, #2
 8001cc4:	d107      	bne.n	8001cd6 <kstream_lock_release+0x3a>
 8001cc6:	6880      	ldr	r0, [r0, #8]
 8001cc8:	3010      	adds	r0, #16
 8001cca:	e001      	b.n	8001cd0 <kstream_lock_release+0x34>
 8001ccc:	6880      	ldr	r0, [r0, #8]
 8001cce:	3014      	adds	r0, #20
 8001cd0:	4621      	mov	r1, r4
 8001cd2:	f7ff ff9e 	bl	8001c12 <dlist_remove>
 8001cd6:	2300      	movs	r3, #0
 8001cd8:	7423      	strb	r3, [r4, #16]
 8001cda:	bd10      	pop	{r4, pc}
 8001cdc:	080054b5 	.word	0x080054b5
 8001ce0:	080051bc 	.word	0x080051bc

08001ce4 <kstream_create>:
 8001ce4:	b5f8      	push	{r3, r4, r5, r6, r7, lr}
 8001ce6:	4604      	mov	r4, r0
 8001ce8:	460e      	mov	r6, r1
 8001cea:	f7ff f929 	bl	8000f40 <kprocess_get_current>
 8001cee:	4607      	mov	r7, r0
 8001cf0:	b672      	cpsid	i
 8001cf2:	2024      	movs	r0, #36	; 0x24
 8001cf4:	f7fe fe72 	bl	80009dc <kmalloc>
 8001cf8:	4605      	mov	r5, r0
 8001cfa:	6020      	str	r0, [r4, #0]
 8001cfc:	b662      	cpsie	i
 8001cfe:	b918      	cbnz	r0, 8001d08 <kstream_create+0x24>
 8001d00:	4638      	mov	r0, r7
 8001d02:	f06f 01c9 	mvn.w	r1, #201	; 0xc9
 8001d06:	e010      	b.n	8001d2a <kstream_create+0x46>
 8001d08:	b672      	cpsid	i
 8001d0a:	4630      	mov	r0, r6
 8001d0c:	f7fe fe66 	bl	80009dc <kmalloc>
 8001d10:	60e8      	str	r0, [r5, #12]
 8001d12:	b662      	cpsie	i
 8001d14:	6820      	ldr	r0, [r4, #0]
 8001d16:	68c5      	ldr	r5, [r0, #12]
 8001d18:	b95d      	cbnz	r5, 8001d32 <kstream_create+0x4e>
 8001d1a:	b672      	cpsid	i
 8001d1c:	f7fe fe6c 	bl	80009f8 <kfree>
 8001d20:	b662      	cpsie	i
 8001d22:	4638      	mov	r0, r7
 8001d24:	6025      	str	r5, [r4, #0]
 8001d26:	f06f 01ca 	mvn.w	r1, #202	; 0xca
 8001d2a:	e8bd 40f8 	ldmia.w	sp!, {r3, r4, r5, r6, r7, lr}
 8001d2e:	f7ff ba47 	b.w	80011c0 <kprocess_error>
 8001d32:	2300      	movs	r3, #0
 8001d34:	f04f 32ff 	mov.w	r2, #4294967295
 8001d38:	6043      	str	r3, [r0, #4]
 8001d3a:	6003      	str	r3, [r0, #0]
 8001d3c:	6086      	str	r6, [r0, #8]
 8001d3e:	6182      	str	r2, [r0, #24]
 8001d40:	6143      	str	r3, [r0, #20]
 8001d42:	6103      	str	r3, [r0, #16]
 8001d44:	bdf8      	pop	{r3, r4, r5, r6, r7, pc}
 8001d46:	0000      	movs	r0, r0

08001d48 <kstream_open>:
 8001d48:	b570      	push	{r4, r5, r6, lr}
 8001d4a:	4605      	mov	r5, r0
 8001d4c:	460c      	mov	r4, r1
 8001d4e:	f7ff f8f7 	bl	8000f40 <kprocess_get_current>
 8001d52:	1c6b      	adds	r3, r5, #1
 8001d54:	4606      	mov	r6, r0
 8001d56:	d101      	bne.n	8001d5c <kstream_open+0x14>
 8001d58:	6025      	str	r5, [r4, #0]
 8001d5a:	bd70      	pop	{r4, r5, r6, pc}
 8001d5c:	1ceb      	adds	r3, r5, #3
 8001d5e:	2b02      	cmp	r3, #2
 8001d60:	d80a      	bhi.n	8001d78 <kstream_open+0x30>
 8001d62:	f7ff f8ed 	bl	8000f40 <kprocess_get_current>
 8001d66:	f7ff f8e7 	bl	8000f38 <kprocess_name>
 8001d6a:	490e      	ldr	r1, [pc, #56]	; (8001da4 <kstream_open+0x5c>)
 8001d6c:	4603      	mov	r3, r0
 8001d6e:	226e      	movs	r2, #110	; 0x6e
 8001d70:	480d      	ldr	r0, [pc, #52]	; (8001da8 <kstream_open+0x60>)
 8001d72:	f7fe fcf3 	bl	800075c <printk>
 8001d76:	e7fe      	b.n	8001d76 <kstream_open+0x2e>
 8001d78:	b672      	cpsid	i
 8001d7a:	201c      	movs	r0, #28
 8001d7c:	f7fe fe2e 	bl	80009dc <kmalloc>
 8001d80:	6020      	str	r0, [r4, #0]
 8001d82:	b662      	cpsie	i
 8001d84:	b130      	cbz	r0, 8001d94 <kstream_open+0x4c>
 8001d86:	60c6      	str	r6, [r0, #12]
 8001d88:	6823      	ldr	r3, [r4, #0]
 8001d8a:	2200      	movs	r2, #0
 8001d8c:	609d      	str	r5, [r3, #8]
 8001d8e:	6823      	ldr	r3, [r4, #0]
 8001d90:	741a      	strb	r2, [r3, #16]
 8001d92:	bd70      	pop	{r4, r5, r6, pc}
 8001d94:	4630      	mov	r0, r6
 8001d96:	e8bd 4070 	ldmia.w	sp!, {r4, r5, r6, lr}
 8001d9a:	f06f 01c9 	mvn.w	r1, #201	; 0xc9
 8001d9e:	f7ff ba0f 	b.w	80011c0 <kprocess_error>
 8001da2:	bf00      	nop
 8001da4:	080054b5 	.word	0x080054b5
 8001da8:	080051bc 	.word	0x080051bc

08001dac <kstream_close>:
 8001dac:	1c43      	adds	r3, r0, #1
 8001dae:	b510      	push	{r4, lr}
 8001db0:	4604      	mov	r4, r0
 8001db2:	d027      	beq.n	8001e04 <kstream_close+0x58>
 8001db4:	1cc3      	adds	r3, r0, #3
 8001db6:	2b02      	cmp	r3, #2
 8001db8:	d80a      	bhi.n	8001dd0 <kstream_close+0x24>
 8001dba:	f7ff f8c1 	bl	8000f40 <kprocess_get_current>
 8001dbe:	f7ff f8bb 	bl	8000f38 <kprocess_name>
 8001dc2:	4911      	ldr	r1, [pc, #68]	; (8001e08 <kstream_close+0x5c>)
 8001dc4:	4603      	mov	r3, r0
 8001dc6:	2283      	movs	r2, #131	; 0x83
 8001dc8:	4810      	ldr	r0, [pc, #64]	; (8001e0c <kstream_close+0x60>)
 8001dca:	f7fe fcc7 	bl	800075c <printk>
 8001dce:	e7fe      	b.n	8001dce <kstream_close+0x22>
 8001dd0:	7c03      	ldrb	r3, [r0, #16]
 8001dd2:	2b01      	cmp	r3, #1
 8001dd4:	d004      	beq.n	8001de0 <kstream_close+0x34>
 8001dd6:	2b02      	cmp	r3, #2
 8001dd8:	d10f      	bne.n	8001dfa <kstream_close+0x4e>
 8001dda:	6880      	ldr	r0, [r0, #8]
 8001ddc:	3010      	adds	r0, #16
 8001dde:	e001      	b.n	8001de4 <kstream_close+0x38>
 8001de0:	6880      	ldr	r0, [r0, #8]
 8001de2:	3014      	adds	r0, #20
 8001de4:	4621      	mov	r1, r4
 8001de6:	f7ff ff14 	bl	8001c12 <dlist_remove>
 8001dea:	68e0      	ldr	r0, [r4, #12]
 8001dec:	f7ff f9d0 	bl	8001190 <kprocess_wakeup>
 8001df0:	68e0      	ldr	r0, [r4, #12]
 8001df2:	f06f 0109 	mvn.w	r1, #9
 8001df6:	f7ff f9e3 	bl	80011c0 <kprocess_error>
 8001dfa:	b672      	cpsid	i
 8001dfc:	4620      	mov	r0, r4
 8001dfe:	f7fe fdfb 	bl	80009f8 <kfree>
 8001e02:	b662      	cpsie	i
 8001e04:	bd10      	pop	{r4, pc}
 8001e06:	bf00      	nop
 8001e08:	080054b5 	.word	0x080054b5
 8001e0c:	080051bc 	.word	0x080051bc

08001e10 <kstream_get_size>:
 8001e10:	1cc3      	adds	r3, r0, #3
 8001e12:	2b02      	cmp	r3, #2
 8001e14:	b510      	push	{r4, lr}
 8001e16:	460c      	mov	r4, r1
 8001e18:	d80a      	bhi.n	8001e30 <kstream_get_size+0x20>
 8001e1a:	f7ff f891 	bl	8000f40 <kprocess_get_current>
 8001e1e:	f7ff f88b 	bl	8000f38 <kprocess_name>
 8001e22:	4905      	ldr	r1, [pc, #20]	; (8001e38 <kstream_get_size+0x28>)
 8001e24:	4603      	mov	r3, r0
 8001e26:	229c      	movs	r2, #156	; 0x9c
 8001e28:	4804      	ldr	r0, [pc, #16]	; (8001e3c <kstream_get_size+0x2c>)
 8001e2a:	f7fe fc97 	bl	800075c <printk>
 8001e2e:	e7fe      	b.n	8001e2e <kstream_get_size+0x1e>
 8001e30:	f7ff ff13 	bl	8001c5a <kstream_get_size_internal>
 8001e34:	6020      	str	r0, [r4, #0]
 8001e36:	bd10      	pop	{r4, pc}
 8001e38:	080054b5 	.word	0x080054b5
 8001e3c:	080051bc 	.word	0x080051bc

08001e40 <kstream_get_free>:
 8001e40:	b538      	push	{r3, r4, r5, lr}
 8001e42:	1cc3      	adds	r3, r0, #3
 8001e44:	2b02      	cmp	r3, #2
 8001e46:	d80a      	bhi.n	8001e5e <kstream_get_free+0x1e>
 8001e48:	f7ff f87a 	bl	8000f40 <kprocess_get_current>
 8001e4c:	f7ff f874 	bl	8000f38 <kprocess_name>
 8001e50:	4914      	ldr	r1, [pc, #80]	; (8001ea4 <kstream_get_free+0x64>)
 8001e52:	4603      	mov	r3, r0
 8001e54:	22a5      	movs	r2, #165	; 0xa5
 8001e56:	4814      	ldr	r0, [pc, #80]	; (8001ea8 <kstream_get_free+0x68>)
 8001e58:	f7fe fc80 	bl	800075c <printk>
 8001e5c:	e7fe      	b.n	8001e5c <kstream_get_free+0x1c>
 8001e5e:	e890 0018 	ldmia.w	r0, {r3, r4}
 8001e62:	42a3      	cmp	r3, r4
 8001e64:	d112      	bne.n	8001e8c <kstream_get_free+0x4c>
 8001e66:	6883      	ldr	r3, [r0, #8]
 8001e68:	6942      	ldr	r2, [r0, #20]
 8001e6a:	3b01      	subs	r3, #1
 8001e6c:	600b      	str	r3, [r1, #0]
 8001e6e:	4613      	mov	r3, r2
 8001e70:	1c14      	adds	r4, r2, #0
 8001e72:	bf18      	it	ne
 8001e74:	2401      	movne	r4, #1
 8001e76:	b19c      	cbz	r4, 8001ea0 <kstream_get_free+0x60>
 8001e78:	6858      	ldr	r0, [r3, #4]
 8001e7a:	680d      	ldr	r5, [r1, #0]
 8001e7c:	699b      	ldr	r3, [r3, #24]
 8001e7e:	1a84      	subs	r4, r0, r2
 8001e80:	442b      	add	r3, r5
 8001e82:	600b      	str	r3, [r1, #0]
 8001e84:	bf18      	it	ne
 8001e86:	2401      	movne	r4, #1
 8001e88:	4603      	mov	r3, r0
 8001e8a:	e7f4      	b.n	8001e76 <kstream_get_free+0x36>
 8001e8c:	429c      	cmp	r4, r3
 8001e8e:	bf97      	itett	ls
 8001e90:	6882      	ldrls	r2, [r0, #8]
 8001e92:	1ae3      	subhi	r3, r4, r3
 8001e94:	1912      	addls	r2, r2, r4
 8001e96:	f102 32ff 	addls.w	r2, r2, #4294967295
 8001e9a:	bf98      	it	ls
 8001e9c:	1ad3      	subls	r3, r2, r3
 8001e9e:	600b      	str	r3, [r1, #0]
 8001ea0:	bd38      	pop	{r3, r4, r5, pc}
 8001ea2:	bf00      	nop
 8001ea4:	080054b5 	.word	0x080054b5
 8001ea8:	080051bc 	.word	0x080051bc

08001eac <kstream_listen>:
 8001eac:	b5f0      	push	{r4, r5, r6, r7, lr}
 8001eae:	1cc3      	adds	r3, r0, #3
 8001eb0:	2b02      	cmp	r3, #2
 8001eb2:	b087      	sub	sp, #28
 8001eb4:	4604      	mov	r4, r0
 8001eb6:	460f      	mov	r7, r1
 8001eb8:	4615      	mov	r5, r2
 8001eba:	d80a      	bhi.n	8001ed2 <kstream_listen+0x26>
 8001ebc:	f7ff f840 	bl	8000f40 <kprocess_get_current>
 8001ec0:	f7ff f83a 	bl	8000f38 <kprocess_name>
 8001ec4:	4915      	ldr	r1, [pc, #84]	; (8001f1c <kstream_listen+0x70>)
 8001ec6:	4603      	mov	r3, r0
 8001ec8:	22b7      	movs	r2, #183	; 0xb7
 8001eca:	4815      	ldr	r0, [pc, #84]	; (8001f20 <kstream_listen+0x74>)
 8001ecc:	f7fe fc46 	bl	800075c <printk>
 8001ed0:	e7fe      	b.n	8001ed0 <kstream_listen+0x24>
 8001ed2:	f7ff f835 	bl	8000f40 <kprocess_get_current>
 8001ed6:	4606      	mov	r6, r0
 8001ed8:	4620      	mov	r0, r4
 8001eda:	f7ff febe 	bl	8001c5a <kstream_get_size_internal>
 8001ede:	69a3      	ldr	r3, [r4, #24]
 8001ee0:	3301      	adds	r3, #1
 8001ee2:	d113      	bne.n	8001f0c <kstream_listen+0x60>
 8001ee4:	b168      	cbz	r0, 8001f02 <kstream_listen+0x56>
 8001ee6:	042d      	lsls	r5, r5, #16
 8001ee8:	f045 0501 	orr.w	r5, r5, #1
 8001eec:	9005      	str	r0, [sp, #20]
 8001eee:	f06f 0102 	mvn.w	r1, #2
 8001ef2:	a801      	add	r0, sp, #4
 8001ef4:	9601      	str	r6, [sp, #4]
 8001ef6:	9502      	str	r5, [sp, #8]
 8001ef8:	9703      	str	r7, [sp, #12]
 8001efa:	9404      	str	r4, [sp, #16]
 8001efc:	f7ff fd9a 	bl	8001a34 <kipc_post_process>
 8001f00:	e009      	b.n	8001f16 <kstream_listen+0x6a>
 8001f02:	61a6      	str	r6, [r4, #24]
 8001f04:	61e7      	str	r7, [r4, #28]
 8001f06:	f884 5020 	strb.w	r5, [r4, #32]
 8001f0a:	e004      	b.n	8001f16 <kstream_listen+0x6a>
 8001f0c:	4630      	mov	r0, r6
 8001f0e:	f06f 010c 	mvn.w	r1, #12
 8001f12:	f7ff f955 	bl	80011c0 <kprocess_error>
 8001f16:	b007      	add	sp, #28
 8001f18:	bdf0      	pop	{r4, r5, r6, r7, pc}
 8001f1a:	bf00      	nop
 8001f1c:	080054b5 	.word	0x080054b5
 8001f20:	080051bc 	.word	0x080051bc

08001f24 <kstream_stop_listen>:
 8001f24:	1cc3      	adds	r3, r0, #3
 8001f26:	2b02      	cmp	r3, #2
 8001f28:	b510      	push	{r4, lr}
 8001f2a:	4604      	mov	r4, r0
 8001f2c:	d80a      	bhi.n	8001f44 <kstream_stop_listen+0x20>
 8001f2e:	f7ff f807 	bl	8000f40 <kprocess_get_current>
 8001f32:	f7ff f801 	bl	8000f38 <kprocess_name>
 8001f36:	490b      	ldr	r1, [pc, #44]	; (8001f64 <kstream_stop_listen+0x40>)
 8001f38:	4603      	mov	r3, r0
 8001f3a:	22d4      	movs	r2, #212	; 0xd4
 8001f3c:	480a      	ldr	r0, [pc, #40]	; (8001f68 <kstream_stop_listen+0x44>)
 8001f3e:	f7fe fc0d 	bl	800075c <printk>
 8001f42:	e7fe      	b.n	8001f42 <kstream_stop_listen+0x1e>
 8001f44:	f7fe fffc 	bl	8000f40 <kprocess_get_current>
 8001f48:	69a3      	ldr	r3, [r4, #24]
 8001f4a:	4298      	cmp	r0, r3
 8001f4c:	d103      	bne.n	8001f56 <kstream_stop_listen+0x32>
 8001f4e:	f04f 33ff 	mov.w	r3, #4294967295
 8001f52:	61a3      	str	r3, [r4, #24]
 8001f54:	bd10      	pop	{r4, pc}
 8001f56:	f06f 010c 	mvn.w	r1, #12
 8001f5a:	e8bd 4010 	ldmia.w	sp!, {r4, lr}
 8001f5e:	f7ff b92f 	b.w	80011c0 <kprocess_error>
 8001f62:	bf00      	nop
 8001f64:	080054b5 	.word	0x080054b5
 8001f68:	080051bc 	.word	0x080051bc

08001f6c <kstream_write>:
 8001f6c:	e92d 41f0 	stmdb	sp!, {r4, r5, r6, r7, r8, lr}
 8001f70:	4604      	mov	r4, r0
 8001f72:	b086      	sub	sp, #24
 8001f74:	460e      	mov	r6, r1
 8001f76:	4617      	mov	r7, r2
 8001f78:	f7fe ffe2 	bl	8000f40 <kprocess_get_current>
 8001f7c:	1ce3      	adds	r3, r4, #3
 8001f7e:	2b02      	cmp	r3, #2
 8001f80:	4680      	mov	r8, r0
 8001f82:	d80a      	bhi.n	8001f9a <kstream_write+0x2e>
 8001f84:	f7fe ffdc 	bl	8000f40 <kprocess_get_current>
 8001f88:	f7fe ffd6 	bl	8000f38 <kprocess_name>
 8001f8c:	4949      	ldr	r1, [pc, #292]	; (80020b4 <kstream_write+0x148>)
 8001f8e:	4603      	mov	r3, r0
 8001f90:	22e3      	movs	r2, #227	; 0xe3
 8001f92:	4849      	ldr	r0, [pc, #292]	; (80020b8 <kstream_write+0x14c>)
 8001f94:	f7fe fbe2 	bl	800075c <printk>
 8001f98:	e7fe      	b.n	8001f98 <kstream_write+0x2c>
 8001f9a:	7c23      	ldrb	r3, [r4, #16]
 8001f9c:	b12b      	cbz	r3, 8001faa <kstream_write+0x3e>
 8001f9e:	4847      	ldr	r0, [pc, #284]	; (80020bc <kstream_write+0x150>)
 8001fa0:	4944      	ldr	r1, [pc, #272]	; (80020b4 <kstream_write+0x148>)
 8001fa2:	22e5      	movs	r2, #229	; 0xe5
 8001fa4:	f7fe fbda 	bl	800075c <printk>
 8001fa8:	e7fe      	b.n	8001fa8 <kstream_write+0x3c>
 8001faa:	68a3      	ldr	r3, [r4, #8]
 8001fac:	3301      	adds	r3, #1
 8001fae:	d104      	bne.n	8001fba <kstream_write+0x4e>
 8001fb0:	f06f 0109 	mvn.w	r1, #9
 8001fb4:	f7ff f904 	bl	80011c0 <kprocess_error>
 8001fb8:	e078      	b.n	80020ac <kstream_write+0x140>
 8001fba:	61a7      	str	r7, [r4, #24]
 8001fbc:	69a3      	ldr	r3, [r4, #24]
 8001fbe:	2b00      	cmp	r3, #0
 8001fc0:	d03c      	beq.n	800203c <kstream_write+0xd0>
 8001fc2:	68a2      	ldr	r2, [r4, #8]
 8001fc4:	6955      	ldr	r5, [r2, #20]
 8001fc6:	2d00      	cmp	r5, #0
 8001fc8:	d038      	beq.n	800203c <kstream_write+0xd0>
 8001fca:	69aa      	ldr	r2, [r5, #24]
 8001fcc:	6968      	ldr	r0, [r5, #20]
 8001fce:	4293      	cmp	r3, r2
 8001fd0:	4631      	mov	r1, r6
 8001fd2:	d311      	bcc.n	8001ff8 <kstream_write+0x8c>
 8001fd4:	f002 fdf6 	bl	8004bc4 <memcpy>
 8001fd8:	69a3      	ldr	r3, [r4, #24]
 8001fda:	69aa      	ldr	r2, [r5, #24]
 8001fdc:	68a0      	ldr	r0, [r4, #8]
 8001fde:	1a9b      	subs	r3, r3, r2
 8001fe0:	61a3      	str	r3, [r4, #24]
 8001fe2:	69ab      	ldr	r3, [r5, #24]
 8001fe4:	3014      	adds	r0, #20
 8001fe6:	441e      	add	r6, r3
 8001fe8:	f7ff fe02 	bl	8001bf0 <dlist_remove_head>
 8001fec:	2300      	movs	r3, #0
 8001fee:	742b      	strb	r3, [r5, #16]
 8001ff0:	68e8      	ldr	r0, [r5, #12]
 8001ff2:	f7ff f8cd 	bl	8001190 <kprocess_wakeup>
 8001ff6:	e7e1      	b.n	8001fbc <kstream_write+0x50>
 8001ff8:	461a      	mov	r2, r3
 8001ffa:	f002 fde3 	bl	8004bc4 <memcpy>
 8001ffe:	69a1      	ldr	r1, [r4, #24]
 8002000:	69ab      	ldr	r3, [r5, #24]
 8002002:	696a      	ldr	r2, [r5, #20]
 8002004:	1a5b      	subs	r3, r3, r1
 8002006:	61ab      	str	r3, [r5, #24]
 8002008:	69a3      	ldr	r3, [r4, #24]
 800200a:	440a      	add	r2, r1
 800200c:	441e      	add	r6, r3
 800200e:	2300      	movs	r3, #0
 8002010:	616a      	str	r2, [r5, #20]
 8002012:	61a3      	str	r3, [r4, #24]
 8002014:	e7d2      	b.n	8001fbc <kstream_write+0x50>
 8002016:	68a5      	ldr	r5, [r4, #8]
 8002018:	4628      	mov	r0, r5
 800201a:	f7ff fdde 	bl	8001bda <rb_is_full>
 800201e:	b988      	cbnz	r0, 8002044 <kstream_write+0xd8>
 8002020:	682a      	ldr	r2, [r5, #0]
 8002022:	68a9      	ldr	r1, [r5, #8]
 8002024:	1c53      	adds	r3, r2, #1
 8002026:	428b      	cmp	r3, r1
 8002028:	bf28      	it	cs
 800202a:	2300      	movcs	r3, #0
 800202c:	602b      	str	r3, [r5, #0]
 800202e:	f816 3b01 	ldrb.w	r3, [r6], #1
 8002032:	68e8      	ldr	r0, [r5, #12]
 8002034:	5483      	strb	r3, [r0, r2]
 8002036:	69a3      	ldr	r3, [r4, #24]
 8002038:	3b01      	subs	r3, #1
 800203a:	61a3      	str	r3, [r4, #24]
 800203c:	69a3      	ldr	r3, [r4, #24]
 800203e:	2b00      	cmp	r3, #0
 8002040:	d1e9      	bne.n	8002016 <kstream_write+0xaa>
 8002042:	e00d      	b.n	8002060 <kstream_write+0xf4>
 8002044:	2302      	movs	r3, #2
 8002046:	6166      	str	r6, [r4, #20]
 8002048:	7423      	strb	r3, [r4, #16]
 800204a:	692b      	ldr	r3, [r5, #16]
 800204c:	bb23      	cbnz	r3, 8002098 <kstream_write+0x12c>
 800204e:	612c      	str	r4, [r5, #16]
 8002050:	6024      	str	r4, [r4, #0]
 8002052:	6064      	str	r4, [r4, #4]
 8002054:	4640      	mov	r0, r8
 8002056:	2100      	movs	r1, #0
 8002058:	2250      	movs	r2, #80	; 0x50
 800205a:	4623      	mov	r3, r4
 800205c:	f7ff f85e 	bl	800111c <kprocess_sleep>
 8002060:	68a4      	ldr	r4, [r4, #8]
 8002062:	69a3      	ldr	r3, [r4, #24]
 8002064:	1c5a      	adds	r2, r3, #1
 8002066:	d021      	beq.n	80020ac <kstream_write+0x140>
 8002068:	b307      	cbz	r7, 80020ac <kstream_write+0x140>
 800206a:	9301      	str	r3, [sp, #4]
 800206c:	f894 3020 	ldrb.w	r3, [r4, #32]
 8002070:	4620      	mov	r0, r4
 8002072:	041b      	lsls	r3, r3, #16
 8002074:	f043 0301 	orr.w	r3, r3, #1
 8002078:	9302      	str	r3, [sp, #8]
 800207a:	69e3      	ldr	r3, [r4, #28]
 800207c:	9404      	str	r4, [sp, #16]
 800207e:	9303      	str	r3, [sp, #12]
 8002080:	f7ff fdeb 	bl	8001c5a <kstream_get_size_internal>
 8002084:	f04f 33ff 	mov.w	r3, #4294967295
 8002088:	9005      	str	r0, [sp, #20]
 800208a:	61a3      	str	r3, [r4, #24]
 800208c:	a801      	add	r0, sp, #4
 800208e:	f06f 0102 	mvn.w	r1, #2
 8002092:	f7ff fccf 	bl	8001a34 <kipc_post_process>
 8002096:	e009      	b.n	80020ac <kstream_write+0x140>
 8002098:	6063      	str	r3, [r4, #4]
 800209a:	692b      	ldr	r3, [r5, #16]
 800209c:	681b      	ldr	r3, [r3, #0]
 800209e:	6023      	str	r3, [r4, #0]
 80020a0:	692b      	ldr	r3, [r5, #16]
 80020a2:	681b      	ldr	r3, [r3, #0]
 80020a4:	605c      	str	r4, [r3, #4]
 80020a6:	692b      	ldr	r3, [r5, #16]
 80020a8:	601c      	str	r4, [r3, #0]
 80020aa:	e7d3      	b.n	8002054 <kstream_write+0xe8>
 80020ac:	b006      	add	sp, #24
 80020ae:	e8bd 81f0 	ldmia.w	sp!, {r4, r5, r6, r7, r8, pc}
 80020b2:	bf00      	nop
 80020b4:	080054b5 	.word	0x080054b5
 80020b8:	080051bc 	.word	0x080051bc
 80020bc:	0800520c 	.word	0x0800520c

080020c0 <kstream_read>:
 80020c0:	e92d 41f0 	stmdb	sp!, {r4, r5, r6, r7, r8, lr}
 80020c4:	4604      	mov	r4, r0
 80020c6:	460d      	mov	r5, r1
 80020c8:	4616      	mov	r6, r2
 80020ca:	f7fe ff39 	bl	8000f40 <kprocess_get_current>
 80020ce:	1ce3      	adds	r3, r4, #3
 80020d0:	2b02      	cmp	r3, #2
 80020d2:	4680      	mov	r8, r0
 80020d4:	d80b      	bhi.n	80020ee <kstream_read+0x2e>
 80020d6:	f7fe ff33 	bl	8000f40 <kprocess_get_current>
 80020da:	f7fe ff2d 	bl	8000f38 <kprocess_name>
 80020de:	4952      	ldr	r1, [pc, #328]	; (8002228 <kstream_read+0x168>)
 80020e0:	4603      	mov	r3, r0
 80020e2:	f240 1223 	movw	r2, #291	; 0x123
 80020e6:	4851      	ldr	r0, [pc, #324]	; (800222c <kstream_read+0x16c>)
 80020e8:	f7fe fb38 	bl	800075c <printk>
 80020ec:	e7fe      	b.n	80020ec <kstream_read+0x2c>
 80020ee:	7c23      	ldrb	r3, [r4, #16]
 80020f0:	b133      	cbz	r3, 8002100 <kstream_read+0x40>
 80020f2:	484f      	ldr	r0, [pc, #316]	; (8002230 <kstream_read+0x170>)
 80020f4:	494c      	ldr	r1, [pc, #304]	; (8002228 <kstream_read+0x168>)
 80020f6:	f44f 7293 	mov.w	r2, #294	; 0x126
 80020fa:	f7fe fb2f 	bl	800075c <printk>
 80020fe:	e7fe      	b.n	80020fe <kstream_read+0x3e>
 8002100:	68a3      	ldr	r3, [r4, #8]
 8002102:	3301      	adds	r3, #1
 8002104:	d105      	bne.n	8002112 <kstream_read+0x52>
 8002106:	f06f 0109 	mvn.w	r1, #9
 800210a:	e8bd 41f0 	ldmia.w	sp!, {r4, r5, r6, r7, r8, lr}
 800210e:	f7ff b857 	b.w	80011c0 <kprocess_error>
 8002112:	4629      	mov	r1, r5
 8002114:	61a6      	str	r6, [r4, #24]
 8002116:	69a3      	ldr	r3, [r4, #24]
 8002118:	460f      	mov	r7, r1
 800211a:	2b00      	cmp	r3, #0
 800211c:	d02b      	beq.n	8002176 <kstream_read+0xb6>
 800211e:	68a3      	ldr	r3, [r4, #8]
 8002120:	6858      	ldr	r0, [r3, #4]
 8002122:	681a      	ldr	r2, [r3, #0]
 8002124:	4282      	cmp	r2, r0
 8002126:	d026      	beq.n	8002176 <kstream_read+0xb6>
 8002128:	689e      	ldr	r6, [r3, #8]
 800212a:	1c42      	adds	r2, r0, #1
 800212c:	42b2      	cmp	r2, r6
 800212e:	bf28      	it	cs
 8002130:	2200      	movcs	r2, #0
 8002132:	68dd      	ldr	r5, [r3, #12]
 8002134:	605a      	str	r2, [r3, #4]
 8002136:	5c2b      	ldrb	r3, [r5, r0]
 8002138:	f801 3b01 	strb.w	r3, [r1], #1
 800213c:	69a3      	ldr	r3, [r4, #24]
 800213e:	3b01      	subs	r3, #1
 8002140:	61a3      	str	r3, [r4, #24]
 8002142:	e7e8      	b.n	8002116 <kstream_read+0x56>
 8002144:	692e      	ldr	r6, [r5, #16]
 8002146:	2e00      	cmp	r6, #0
 8002148:	d052      	beq.n	80021f0 <kstream_read+0x130>
 800214a:	69b2      	ldr	r2, [r6, #24]
 800214c:	4638      	mov	r0, r7
 800214e:	4293      	cmp	r3, r2
 8002150:	6971      	ldr	r1, [r6, #20]
 8002152:	d315      	bcc.n	8002180 <kstream_read+0xc0>
 8002154:	f002 fd36 	bl	8004bc4 <memcpy>
 8002158:	69a3      	ldr	r3, [r4, #24]
 800215a:	69b2      	ldr	r2, [r6, #24]
 800215c:	68a0      	ldr	r0, [r4, #8]
 800215e:	1a9b      	subs	r3, r3, r2
 8002160:	61a3      	str	r3, [r4, #24]
 8002162:	69b3      	ldr	r3, [r6, #24]
 8002164:	3010      	adds	r0, #16
 8002166:	441f      	add	r7, r3
 8002168:	2300      	movs	r3, #0
 800216a:	7433      	strb	r3, [r6, #16]
 800216c:	f7ff fd40 	bl	8001bf0 <dlist_remove_head>
 8002170:	68f0      	ldr	r0, [r6, #12]
 8002172:	f7ff f80d 	bl	8001190 <kprocess_wakeup>
 8002176:	69a3      	ldr	r3, [r4, #24]
 8002178:	68a5      	ldr	r5, [r4, #8]
 800217a:	2b00      	cmp	r3, #0
 800217c:	d1e2      	bne.n	8002144 <kstream_read+0x84>
 800217e:	e02e      	b.n	80021de <kstream_read+0x11e>
 8002180:	461a      	mov	r2, r3
 8002182:	f002 fd1f 	bl	8004bc4 <memcpy>
 8002186:	69a2      	ldr	r2, [r4, #24]
 8002188:	69b3      	ldr	r3, [r6, #24]
 800218a:	1a9b      	subs	r3, r3, r2
 800218c:	61b3      	str	r3, [r6, #24]
 800218e:	69a2      	ldr	r2, [r4, #24]
 8002190:	6973      	ldr	r3, [r6, #20]
 8002192:	4417      	add	r7, r2
 8002194:	4413      	add	r3, r2
 8002196:	6173      	str	r3, [r6, #20]
 8002198:	2300      	movs	r3, #0
 800219a:	61a3      	str	r3, [r4, #24]
 800219c:	e7eb      	b.n	8002176 <kstream_read+0xb6>
 800219e:	b1ab      	cbz	r3, 80021cc <kstream_read+0x10c>
 80021a0:	682a      	ldr	r2, [r5, #0]
 80021a2:	68a8      	ldr	r0, [r5, #8]
 80021a4:	1c53      	adds	r3, r2, #1
 80021a6:	4283      	cmp	r3, r0
 80021a8:	bf28      	it	cs
 80021aa:	2300      	movcs	r3, #0
 80021ac:	602b      	str	r3, [r5, #0]
 80021ae:	6963      	ldr	r3, [r4, #20]
 80021b0:	68e9      	ldr	r1, [r5, #12]
 80021b2:	1c58      	adds	r0, r3, #1
 80021b4:	6160      	str	r0, [r4, #20]
 80021b6:	781b      	ldrb	r3, [r3, #0]
 80021b8:	548b      	strb	r3, [r1, r2]
 80021ba:	69a3      	ldr	r3, [r4, #24]
 80021bc:	3b01      	subs	r3, #1
 80021be:	61a3      	str	r3, [r4, #24]
 80021c0:	4628      	mov	r0, r5
 80021c2:	f7ff fd0a 	bl	8001bda <rb_is_full>
 80021c6:	69a3      	ldr	r3, [r4, #24]
 80021c8:	2800      	cmp	r0, #0
 80021ca:	d0e8      	beq.n	800219e <kstream_read+0xde>
 80021cc:	b93b      	cbnz	r3, 80021de <kstream_read+0x11e>
 80021ce:	f105 0010 	add.w	r0, r5, #16
 80021d2:	7423      	strb	r3, [r4, #16]
 80021d4:	f7ff fd0c 	bl	8001bf0 <dlist_remove_head>
 80021d8:	68e0      	ldr	r0, [r4, #12]
 80021da:	f7fe ffd9 	bl	8001190 <kprocess_wakeup>
 80021de:	692c      	ldr	r4, [r5, #16]
 80021e0:	b304      	cbz	r4, 8002224 <kstream_read+0x164>
 80021e2:	4628      	mov	r0, r5
 80021e4:	f7ff fcf9 	bl	8001bda <rb_is_full>
 80021e8:	2800      	cmp	r0, #0
 80021ea:	d0e9      	beq.n	80021c0 <kstream_read+0x100>
 80021ec:	e8bd 81f0 	ldmia.w	sp!, {r4, r5, r6, r7, r8, pc}
 80021f0:	2301      	movs	r3, #1
 80021f2:	6167      	str	r7, [r4, #20]
 80021f4:	7423      	strb	r3, [r4, #16]
 80021f6:	696b      	ldr	r3, [r5, #20]
 80021f8:	b91b      	cbnz	r3, 8002202 <kstream_read+0x142>
 80021fa:	616c      	str	r4, [r5, #20]
 80021fc:	6024      	str	r4, [r4, #0]
 80021fe:	6064      	str	r4, [r4, #4]
 8002200:	e008      	b.n	8002214 <kstream_read+0x154>
 8002202:	6063      	str	r3, [r4, #4]
 8002204:	696b      	ldr	r3, [r5, #20]
 8002206:	681b      	ldr	r3, [r3, #0]
 8002208:	6023      	str	r3, [r4, #0]
 800220a:	696b      	ldr	r3, [r5, #20]
 800220c:	681b      	ldr	r3, [r3, #0]
 800220e:	605c      	str	r4, [r3, #4]
 8002210:	696b      	ldr	r3, [r5, #20]
 8002212:	601c      	str	r4, [r3, #0]
 8002214:	4640      	mov	r0, r8
 8002216:	4623      	mov	r3, r4
 8002218:	e8bd 41f0 	ldmia.w	sp!, {r4, r5, r6, r7, r8, lr}
 800221c:	2100      	movs	r1, #0
 800221e:	2250      	movs	r2, #80	; 0x50
 8002220:	f7fe bf7c 	b.w	800111c <kprocess_sleep>
 8002224:	e8bd 81f0 	ldmia.w	sp!, {r4, r5, r6, r7, r8, pc}
 8002228:	080054b5 	.word	0x080054b5
 800222c:	080051bc 	.word	0x080051bc
 8002230:	0800520c 	.word	0x0800520c

08002234 <kstream_flush>:
 8002234:	b538      	push	{r3, r4, r5, lr}
 8002236:	1cc3      	adds	r3, r0, #3
 8002238:	2b02      	cmp	r3, #2
 800223a:	4604      	mov	r4, r0
 800223c:	d80b      	bhi.n	8002256 <kstream_flush+0x22>
 800223e:	f7fe fe7f 	bl	8000f40 <kprocess_get_current>
 8002242:	f7fe fe79 	bl	8000f38 <kprocess_name>
 8002246:	490d      	ldr	r1, [pc, #52]	; (800227c <kstream_flush+0x48>)
 8002248:	4603      	mov	r3, r0
 800224a:	f44f 72ab 	mov.w	r2, #342	; 0x156
 800224e:	480c      	ldr	r0, [pc, #48]	; (8002280 <kstream_flush+0x4c>)
 8002250:	f7fe fa84 	bl	800075c <printk>
 8002254:	e7fe      	b.n	8002254 <kstream_flush+0x20>
 8002256:	6843      	ldr	r3, [r0, #4]
 8002258:	6003      	str	r3, [r0, #0]
 800225a:	f04f 33ff 	mov.w	r3, #4294967295
 800225e:	6183      	str	r3, [r0, #24]
 8002260:	6925      	ldr	r5, [r4, #16]
 8002262:	b14d      	cbz	r5, 8002278 <kstream_flush+0x44>
 8002264:	2300      	movs	r3, #0
 8002266:	f104 0010 	add.w	r0, r4, #16
 800226a:	742b      	strb	r3, [r5, #16]
 800226c:	f7ff fcc0 	bl	8001bf0 <dlist_remove_head>
 8002270:	68e8      	ldr	r0, [r5, #12]
 8002272:	f7fe ff8d 	bl	8001190 <kprocess_wakeup>
 8002276:	e7f3      	b.n	8002260 <kstream_flush+0x2c>
 8002278:	bd38      	pop	{r3, r4, r5, pc}
 800227a:	bf00      	nop
 800227c:	080054b5 	.word	0x080054b5
 8002280:	080051bc 	.word	0x080051bc

08002284 <kstream_destroy>:
 8002284:	b538      	push	{r3, r4, r5, lr}
 8002286:	1c43      	adds	r3, r0, #1
 8002288:	4604      	mov	r4, r0
 800228a:	d021      	beq.n	80022d0 <kstream_destroy+0x4c>
 800228c:	1cc3      	adds	r3, r0, #3
 800228e:	2b02      	cmp	r3, #2
 8002290:	d80b      	bhi.n	80022aa <kstream_destroy+0x26>
 8002292:	f7fe fe55 	bl	8000f40 <kprocess_get_current>
 8002296:	f7fe fe4f 	bl	8000f38 <kprocess_name>
 800229a:	490e      	ldr	r1, [pc, #56]	; (80022d4 <kstream_destroy+0x50>)
 800229c:	4603      	mov	r3, r0
 800229e:	f240 1277 	movw	r2, #375	; 0x177
 80022a2:	480d      	ldr	r0, [pc, #52]	; (80022d8 <kstream_destroy+0x54>)
 80022a4:	f7fe fa5a 	bl	800075c <printk>
 80022a8:	e7fe      	b.n	80022a8 <kstream_destroy+0x24>
 80022aa:	f100 0510 	add.w	r5, r0, #16
 80022ae:	4628      	mov	r0, r5
 80022b0:	4629      	mov	r1, r5
 80022b2:	f7ff fcbc 	bl	8001c2e <kstream_destroy_handle.isra.2>
 80022b6:	4628      	mov	r0, r5
 80022b8:	f104 0114 	add.w	r1, r4, #20
 80022bc:	f7ff fcb7 	bl	8001c2e <kstream_destroy_handle.isra.2>
 80022c0:	b672      	cpsid	i
 80022c2:	68e0      	ldr	r0, [r4, #12]
 80022c4:	f7fe fb98 	bl	80009f8 <kfree>
 80022c8:	4620      	mov	r0, r4
 80022ca:	f7fe fb95 	bl	80009f8 <kfree>
 80022ce:	b662      	cpsie	i
 80022d0:	bd38      	pop	{r3, r4, r5, pc}
 80022d2:	bf00      	nop
 80022d4:	080054b5 	.word	0x080054b5
 80022d8:	080051bc 	.word	0x080051bc

080022dc <kobject_init>:
 80022dc:	4b06      	ldr	r3, [pc, #24]	; (80022f8 <kobject_init+0x1c>)
 80022de:	f04f 32ff 	mov.w	r2, #4294967295
 80022e2:	f8c3 2124 	str.w	r2, [r3, #292]	; 0x124
 80022e6:	f8c3 2128 	str.w	r2, [r3, #296]	; 0x128
 80022ea:	f8c3 212c 	str.w	r2, [r3, #300]	; 0x12c
 80022ee:	f8c3 2130 	str.w	r2, [r3, #304]	; 0x130
 80022f2:	f8c3 2134 	str.w	r2, [r3, #308]	; 0x134
 80022f6:	4770      	bx	lr
 80022f8:	2000000c 	.word	0x2000000c

080022fc <kobject_set>:
 80022fc:	b538      	push	{r3, r4, r5, lr}
 80022fe:	4604      	mov	r4, r0
 8002300:	460d      	mov	r5, r1
 8002302:	f7fe fe1d 	bl	8000f40 <kprocess_get_current>
 8002306:	2c04      	cmp	r4, #4
 8002308:	4603      	mov	r3, r0
 800230a:	dc12      	bgt.n	8002332 <kobject_set+0x36>
 800230c:	00a0      	lsls	r0, r4, #2
 800230e:	f100 5000 	add.w	r0, r0, #536870912	; 0x20000000
 8002312:	300c      	adds	r0, #12
 8002314:	f8d0 2124 	ldr.w	r2, [r0, #292]	; 0x124
 8002318:	1c51      	adds	r1, r2, #1
 800231a:	d003      	beq.n	8002324 <kobject_set+0x28>
 800231c:	4293      	cmp	r3, r2
 800231e:	d104      	bne.n	800232a <kobject_set+0x2e>
 8002320:	1c6a      	adds	r2, r5, #1
 8002322:	d102      	bne.n	800232a <kobject_set+0x2e>
 8002324:	f8c0 5124 	str.w	r5, [r0, #292]	; 0x124
 8002328:	bd38      	pop	{r3, r4, r5, pc}
 800232a:	4618      	mov	r0, r3
 800232c:	f06f 010c 	mvn.w	r1, #12
 8002330:	e001      	b.n	8002336 <kobject_set+0x3a>
 8002332:	f06f 010b 	mvn.w	r1, #11
 8002336:	e8bd 4038 	ldmia.w	sp!, {r3, r4, r5, lr}
 800233a:	f7fe bf41 	b.w	80011c0 <kprocess_error>

0800233e <kobject_get>:
 800233e:	b538      	push	{r3, r4, r5, lr}
 8002340:	4604      	mov	r4, r0
 8002342:	460d      	mov	r5, r1
 8002344:	f7fe fdfc 	bl	8000f40 <kprocess_get_current>
 8002348:	2c04      	cmp	r4, #4
 800234a:	dc06      	bgt.n	800235a <kobject_get+0x1c>
 800234c:	00a0      	lsls	r0, r4, #2
 800234e:	f100 5000 	add.w	r0, r0, #536870912	; 0x20000000
 8002352:	f8d0 3130 	ldr.w	r3, [r0, #304]	; 0x130
 8002356:	602b      	str	r3, [r5, #0]
 8002358:	bd38      	pop	{r3, r4, r5, pc}
 800235a:	f06f 010b 	mvn.w	r1, #11
 800235e:	e8bd 4038 	ldmia.w	sp!, {r3, r4, r5, lr}
 8002362:	f7fe bf2d 	b.w	80011c0 <kprocess_error>

08002366 <kio_create>:
 8002366:	b5f8      	push	{r3, r4, r5, r6, r7, lr}
 8002368:	4607      	mov	r7, r0
 800236a:	460e      	mov	r6, r1
 800236c:	f7fe fde8 	bl	8000f40 <kprocess_get_current>
 8002370:	4605      	mov	r5, r0
 8002372:	b672      	cpsid	i
 8002374:	2018      	movs	r0, #24
 8002376:	f7fe fb31 	bl	80009dc <kmalloc>
 800237a:	4604      	mov	r4, r0
 800237c:	b662      	cpsie	i
 800237e:	b1c8      	cbz	r0, 80023b4 <kio_create+0x4e>
 8002380:	2300      	movs	r3, #0
 8002382:	6105      	str	r5, [r0, #16]
 8002384:	60c5      	str	r5, [r0, #12]
 8002386:	7503      	strb	r3, [r0, #20]
 8002388:	b672      	cpsid	i
 800238a:	3614      	adds	r6, #20
 800238c:	4630      	mov	r0, r6
 800238e:	f7fe fb25 	bl	80009dc <kmalloc>
 8002392:	60a0      	str	r0, [r4, #8]
 8002394:	6038      	str	r0, [r7, #0]
 8002396:	b662      	cpsie	i
 8002398:	68a3      	ldr	r3, [r4, #8]
 800239a:	b93b      	cbnz	r3, 80023ac <kio_create+0x46>
 800239c:	4620      	mov	r0, r4
 800239e:	f7fe fb2b 	bl	80009f8 <kfree>
 80023a2:	4628      	mov	r0, r5
 80023a4:	f06f 01ca 	mvn.w	r1, #202	; 0xca
 80023a8:	f7fe ff0a 	bl	80011c0 <kprocess_error>
 80023ac:	68a3      	ldr	r3, [r4, #8]
 80023ae:	601c      	str	r4, [r3, #0]
 80023b0:	605e      	str	r6, [r3, #4]
 80023b2:	bdf8      	pop	{r3, r4, r5, r6, r7, pc}
 80023b4:	4628      	mov	r0, r5
 80023b6:	e8bd 40f8 	ldmia.w	sp!, {r3, r4, r5, r6, r7, lr}
 80023ba:	f06f 01c9 	mvn.w	r1, #201	; 0xc9
 80023be:	f7fe beff 	b.w	80011c0 <kprocess_error>

080023c2 <kio_send>:
 80023c2:	b570      	push	{r4, r5, r6, lr}
 80023c4:	4604      	mov	r4, r0
 80023c6:	460e      	mov	r6, r1
 80023c8:	f7fe fdba 	bl	8000f40 <kprocess_get_current>
 80023cc:	6923      	ldr	r3, [r4, #16]
 80023ce:	4283      	cmp	r3, r0
 80023d0:	d005      	beq.n	80023de <kio_send+0x1c>
 80023d2:	f06f 010c 	mvn.w	r1, #12
 80023d6:	f7fe fef3 	bl	80011c0 <kprocess_error>
 80023da:	2500      	movs	r5, #0
 80023dc:	e011      	b.n	8002402 <kio_send+0x40>
 80023de:	7d25      	ldrb	r5, [r4, #20]
 80023e0:	b16d      	cbz	r5, 80023fe <kio_send+0x3c>
 80023e2:	b672      	cpsid	i
 80023e4:	68a0      	ldr	r0, [r4, #8]
 80023e6:	f7fe fb07 	bl	80009f8 <kfree>
 80023ea:	4620      	mov	r0, r4
 80023ec:	f7fe fb04 	bl	80009f8 <kfree>
 80023f0:	b662      	cpsie	i
 80023f2:	f06f 0109 	mvn.w	r1, #9
 80023f6:	4630      	mov	r0, r6
 80023f8:	f7fe fee2 	bl	80011c0 <kprocess_error>
 80023fc:	e001      	b.n	8002402 <kio_send+0x40>
 80023fe:	6126      	str	r6, [r4, #16]
 8002400:	2501      	movs	r5, #1
 8002402:	4628      	mov	r0, r5
 8002404:	bd70      	pop	{r4, r5, r6, pc}
 8002406:	0000      	movs	r0, r0

08002408 <kio_destroy>:
 8002408:	b510      	push	{r4, lr}
 800240a:	b350      	cbz	r0, 8002462 <kio_destroy+0x5a>
 800240c:	6804      	ldr	r4, [r0, #0]
 800240e:	f7fe fd97 	bl	8000f40 <kprocess_get_current>
 8002412:	1ce2      	adds	r2, r4, #3
 8002414:	2a02      	cmp	r2, #2
 8002416:	d80a      	bhi.n	800242e <kio_destroy+0x26>
 8002418:	f7fe fd92 	bl	8000f40 <kprocess_get_current>
 800241c:	f7fe fd8c 	bl	8000f38 <kprocess_name>
 8002420:	4910      	ldr	r1, [pc, #64]	; (8002464 <kio_destroy+0x5c>)
 8002422:	4603      	mov	r3, r0
 8002424:	224c      	movs	r2, #76	; 0x4c
 8002426:	4810      	ldr	r0, [pc, #64]	; (8002468 <kio_destroy+0x60>)
 8002428:	f7fe f998 	bl	800075c <printk>
 800242c:	e7fe      	b.n	800242c <kio_destroy+0x24>
 800242e:	68e2      	ldr	r2, [r4, #12]
 8002430:	4290      	cmp	r0, r2
 8002432:	d005      	beq.n	8002440 <kio_destroy+0x38>
 8002434:	e8bd 4010 	ldmia.w	sp!, {r4, lr}
 8002438:	f06f 010c 	mvn.w	r1, #12
 800243c:	f7fe bec0 	b.w	80011c0 <kprocess_error>
 8002440:	b672      	cpsid	i
 8002442:	6922      	ldr	r2, [r4, #16]
 8002444:	2301      	movs	r3, #1
 8002446:	4282      	cmp	r2, r0
 8002448:	bf1c      	itt	ne
 800244a:	7523      	strbne	r3, [r4, #20]
 800244c:	2300      	movne	r3, #0
 800244e:	b662      	cpsie	i
 8002450:	b13b      	cbz	r3, 8002462 <kio_destroy+0x5a>
 8002452:	b672      	cpsid	i
 8002454:	68a0      	ldr	r0, [r4, #8]
 8002456:	f7fe facf 	bl	80009f8 <kfree>
 800245a:	4620      	mov	r0, r4
 800245c:	f7fe facc 	bl	80009f8 <kfree>
 8002460:	b662      	cpsie	i
 8002462:	bd10      	pop	{r4, pc}
 8002464:	080054d1 	.word	0x080054d1
 8002468:	080051bc 	.word	0x080051bc

0800246c <lib_systime_add>:
 800246c:	680b      	ldr	r3, [r1, #0]
 800246e:	b510      	push	{r4, lr}
 8002470:	6804      	ldr	r4, [r0, #0]
 8002472:	6840      	ldr	r0, [r0, #4]
 8002474:	4423      	add	r3, r4
 8002476:	6013      	str	r3, [r2, #0]
 8002478:	684b      	ldr	r3, [r1, #4]
 800247a:	4403      	add	r3, r0
 800247c:	6053      	str	r3, [r2, #4]
 800247e:	6853      	ldr	r3, [r2, #4]
 8002480:	4905      	ldr	r1, [pc, #20]	; (8002498 <lib_systime_add+0x2c>)
 8002482:	428b      	cmp	r3, r1
 8002484:	d907      	bls.n	8002496 <lib_systime_add+0x2a>
 8002486:	6811      	ldr	r1, [r2, #0]
 8002488:	f5a3 2374 	sub.w	r3, r3, #999424	; 0xf4000
 800248c:	3101      	adds	r1, #1
 800248e:	6011      	str	r1, [r2, #0]
 8002490:	f5a3 7310 	sub.w	r3, r3, #576	; 0x240
 8002494:	e7f2      	b.n	800247c <lib_systime_add+0x10>
 8002496:	bd10      	pop	{r4, pc}
 8002498:	000f423f 	.word	0x000f423f

0800249c <lib_us_to_systime>:
 800249c:	4a03      	ldr	r2, [pc, #12]	; (80024ac <lib_us_to_systime+0x10>)
 800249e:	fbb0 f3f2 	udiv	r3, r0, r2
 80024a2:	600b      	str	r3, [r1, #0]
 80024a4:	fb02 0313 	mls	r3, r2, r3, r0
 80024a8:	604b      	str	r3, [r1, #4]
 80024aa:	4770      	bx	lr
 80024ac:	000f4240 	.word	0x000f4240

080024b0 <lib_ms_to_systime>:
 80024b0:	f44f 737a 	mov.w	r3, #1000	; 0x3e8
 80024b4:	fbb0 f2f3 	udiv	r2, r0, r3
 80024b8:	600a      	str	r2, [r1, #0]
 80024ba:	fb03 0212 	mls	r2, r3, r2, r0
 80024be:	4353      	muls	r3, r2
 80024c0:	604b      	str	r3, [r1, #4]
 80024c2:	4770      	bx	lr

080024c4 <lib_systime_to_us>:
 80024c4:	f640 0262 	movw	r2, #2146	; 0x862
 80024c8:	6803      	ldr	r3, [r0, #0]
 80024ca:	4293      	cmp	r3, r2
 80024cc:	bf9d      	ittte	ls
 80024ce:	6842      	ldrls	r2, [r0, #4]
 80024d0:	4802      	ldrls	r0, [pc, #8]	; (80024dc <lib_systime_to_us+0x18>)
 80024d2:	fb00 2003 	mlals	r0, r0, r3, r2
 80024d6:	4802      	ldrhi	r0, [pc, #8]	; (80024e0 <lib_systime_to_us+0x1c>)
 80024d8:	4770      	bx	lr
 80024da:	bf00      	nop
 80024dc:	000f4240 	.word	0x000f4240
 80024e0:	7fe95c80 	.word	0x7fe95c80

080024e4 <lib_systime_to_ms>:
 80024e4:	6803      	ldr	r3, [r0, #0]
 80024e6:	4a06      	ldr	r2, [pc, #24]	; (8002500 <lib_systime_to_ms+0x1c>)
 80024e8:	4293      	cmp	r3, r2
 80024ea:	bf9f      	itttt	ls
 80024ec:	6840      	ldrls	r0, [r0, #4]
 80024ee:	f44f 727a 	movls.w	r2, #1000	; 0x3e8
 80024f2:	fbb0 f0f2 	udivls	r0, r0, r2
 80024f6:	fb02 0003 	mlals	r0, r2, r3, r0
 80024fa:	bf88      	it	hi
 80024fc:	4801      	ldrhi	r0, [pc, #4]	; (8002504 <lib_systime_to_ms+0x20>)
 80024fe:	4770      	bx	lr
 8002500:	0020c49a 	.word	0x0020c49a
 8002504:	7ffff990 	.word	0x7ffff990

08002508 <lib_systime_compare>:
 8002508:	680a      	ldr	r2, [r1, #0]
 800250a:	6803      	ldr	r3, [r0, #0]
 800250c:	429a      	cmp	r2, r3
 800250e:	d80c      	bhi.n	800252a <lib_systime_compare+0x22>
 8002510:	d108      	bne.n	8002524 <lib_systime_compare+0x1c>
 8002512:	684a      	ldr	r2, [r1, #4]
 8002514:	6843      	ldr	r3, [r0, #4]
 8002516:	429a      	cmp	r2, r3
 8002518:	d807      	bhi.n	800252a <lib_systime_compare+0x22>
 800251a:	bf14      	ite	ne
 800251c:	f04f 30ff 	movne.w	r0, #4294967295
 8002520:	2000      	moveq	r0, #0
 8002522:	4770      	bx	lr
 8002524:	f04f 30ff 	mov.w	r0, #4294967295
 8002528:	4770      	bx	lr
 800252a:	2001      	movs	r0, #1
 800252c:	4770      	bx	lr

0800252e <lib_systime_sub>:
 800252e:	b570      	push	{r4, r5, r6, lr}
 8002530:	4605      	mov	r5, r0
 8002532:	460e      	mov	r6, r1
 8002534:	4614      	mov	r4, r2
 8002536:	f7ff ffe7 	bl	8002508 <lib_systime_compare>
 800253a:	2800      	cmp	r0, #0
 800253c:	dd14      	ble.n	8002568 <lib_systime_sub+0x3a>
 800253e:	6833      	ldr	r3, [r6, #0]
 8002540:	682a      	ldr	r2, [r5, #0]
 8002542:	6869      	ldr	r1, [r5, #4]
 8002544:	1a9a      	subs	r2, r3, r2
 8002546:	6873      	ldr	r3, [r6, #4]
 8002548:	6022      	str	r2, [r4, #0]
 800254a:	428b      	cmp	r3, r1
 800254c:	bf3b      	ittet	cc
 800254e:	f503 2374 	addcc.w	r3, r3, #999424	; 0xf4000
 8002552:	f503 7310 	addcc.w	r3, r3, #576	; 0x240
 8002556:	1a5b      	subcs	r3, r3, r1
 8002558:	1a5b      	subcc	r3, r3, r1
 800255a:	bf37      	itett	cc
 800255c:	f102 32ff 	addcc.w	r2, r2, #4294967295
 8002560:	6063      	strcs	r3, [r4, #4]
 8002562:	6063      	strcc	r3, [r4, #4]
 8002564:	6022      	strcc	r2, [r4, #0]
 8002566:	bd70      	pop	{r4, r5, r6, pc}
 8002568:	2300      	movs	r3, #0
 800256a:	6063      	str	r3, [r4, #4]
 800256c:	6023      	str	r3, [r4, #0]
 800256e:	bd70      	pop	{r4, r5, r6, pc}

08002570 <lib_systime_elapsed_us>:
 8002570:	b513      	push	{r0, r1, r4, lr}
 8002572:	4604      	mov	r4, r0
 8002574:	4668      	mov	r0, sp
 8002576:	f002 f9ec 	bl	8004952 <get_uptime>
 800257a:	4620      	mov	r0, r4
 800257c:	4669      	mov	r1, sp
 800257e:	466a      	mov	r2, sp
 8002580:	f7ff ffd5 	bl	800252e <lib_systime_sub>
 8002584:	4668      	mov	r0, sp
 8002586:	f7ff ff9d 	bl	80024c4 <lib_systime_to_us>
 800258a:	b002      	add	sp, #8
 800258c:	bd10      	pop	{r4, pc}

0800258e <lib_systime_elapsed_ms>:
 800258e:	b513      	push	{r0, r1, r4, lr}
 8002590:	4604      	mov	r4, r0
 8002592:	4668      	mov	r0, sp
 8002594:	f002 f9dd 	bl	8004952 <get_uptime>
 8002598:	4620      	mov	r0, r4
 800259a:	4669      	mov	r1, sp
 800259c:	466a      	mov	r2, sp
 800259e:	f7ff ffc6 	bl	800252e <lib_systime_sub>
 80025a2:	4668      	mov	r0, sp
 80025a4:	f7ff ff9e 	bl	80024e4 <lib_systime_to_ms>
 80025a8:	b002      	add	sp, #8
 80025aa:	bd10      	pop	{r4, pc}

080025ac <lib_systime_elapsed>:
 80025ac:	b537      	push	{r0, r1, r2, r4, r5, lr}
 80025ae:	460c      	mov	r4, r1
 80025b0:	4605      	mov	r5, r0
 80025b2:	4668      	mov	r0, sp
 80025b4:	f002 f9cd 	bl	8004952 <get_uptime>
 80025b8:	4628      	mov	r0, r5
 80025ba:	4669      	mov	r1, sp
 80025bc:	4622      	mov	r2, r4
 80025be:	f7ff ffb6 	bl	800252e <lib_systime_sub>
 80025c2:	4620      	mov	r0, r4
 80025c4:	b003      	add	sp, #12
 80025c6:	bd30      	pop	{r4, r5, pc}

080025c8 <pool_init>:
 80025c8:	3103      	adds	r1, #3
 80025ca:	f021 0103 	bic.w	r1, r1, #3
 80025ce:	1d0b      	adds	r3, r1, #4
 80025d0:	6083      	str	r3, [r0, #8]
 80025d2:	6043      	str	r3, [r0, #4]
 80025d4:	2300      	movs	r3, #0
 80025d6:	600b      	str	r3, [r1, #0]
 80025d8:	6003      	str	r3, [r0, #0]
 80025da:	4770      	bx	lr

080025dc <pool_slot_size>:
 80025dc:	b131      	cbz	r1, 80025ec <pool_slot_size+0x10>
 80025de:	f851 3c04 	ldr.w	r3, [r1, #-4]
 80025e2:	f06f 0003 	mvn.w	r0, #3
 80025e6:	1a40      	subs	r0, r0, r1
 80025e8:	4418      	add	r0, r3
 80025ea:	4770      	bx	lr
 80025ec:	4608      	mov	r0, r1
 80025ee:	4770      	bx	lr

080025f0 <pool_free>:
 80025f0:	b510      	push	{r4, lr}
 80025f2:	2900      	cmp	r1, #0
 80025f4:	d039      	beq.n	800266a <pool_free+0x7a>
 80025f6:	6803      	ldr	r3, [r0, #0]
 80025f8:	2200      	movs	r2, #0
 80025fa:	b123      	cbz	r3, 8002606 <pool_free+0x16>
 80025fc:	4299      	cmp	r1, r3
 80025fe:	d902      	bls.n	8002606 <pool_free+0x16>
 8002600:	461a      	mov	r2, r3
 8002602:	681b      	ldr	r3, [r3, #0]
 8002604:	e7f9      	b.n	80025fa <pool_free+0xa>
 8002606:	428b      	cmp	r3, r1
 8002608:	d00b      	beq.n	8002622 <pool_free+0x32>
 800260a:	f851 4c04 	ldr.w	r4, [r1, #-4]
 800260e:	428c      	cmp	r4, r1
 8002610:	d907      	bls.n	8002622 <pool_free+0x32>
 8002612:	b10b      	cbz	r3, 8002618 <pool_free+0x28>
 8002614:	429c      	cmp	r4, r3
 8002616:	d804      	bhi.n	8002622 <pool_free+0x32>
 8002618:	b14a      	cbz	r2, 800262e <pool_free+0x3e>
 800261a:	f852 4c04 	ldr.w	r4, [r2, #-4]
 800261e:	428c      	cmp	r4, r1
 8002620:	d905      	bls.n	800262e <pool_free+0x3e>
 8002622:	e8bd 4010 	ldmia.w	sp!, {r4, lr}
 8002626:	f06f 00cb 	mvn.w	r0, #203	; 0xcb
 800262a:	f002 b928 	b.w	800487e <error>
 800262e:	600b      	str	r3, [r1, #0]
 8002630:	b16a      	cbz	r2, 800264e <pool_free+0x5e>
 8002632:	6011      	str	r1, [r2, #0]
 8002634:	b183      	cbz	r3, 8002658 <pool_free+0x68>
 8002636:	f851 0c04 	ldr.w	r0, [r1, #-4]
 800263a:	4298      	cmp	r0, r3
 800263c:	d10b      	bne.n	8002656 <pool_free+0x66>
 800263e:	f853 0c04 	ldr.w	r0, [r3, #-4]
 8002642:	f841 0c04 	str.w	r0, [r1, #-4]
 8002646:	6818      	ldr	r0, [r3, #0]
 8002648:	6008      	str	r0, [r1, #0]
 800264a:	681b      	ldr	r3, [r3, #0]
 800264c:	e003      	b.n	8002656 <pool_free+0x66>
 800264e:	6001      	str	r1, [r0, #0]
 8002650:	2b00      	cmp	r3, #0
 8002652:	d1f0      	bne.n	8002636 <pool_free+0x46>
 8002654:	bd10      	pop	{r4, pc}
 8002656:	b142      	cbz	r2, 800266a <pool_free+0x7a>
 8002658:	f852 0c04 	ldr.w	r0, [r2, #-4]
 800265c:	4288      	cmp	r0, r1
 800265e:	bf02      	ittt	eq
 8002660:	f851 1c04 	ldreq.w	r1, [r1, #-4]
 8002664:	6013      	streq	r3, [r2, #0]
 8002666:	f842 1c04 	streq.w	r1, [r2, #-4]
 800266a:	bd10      	pop	{r4, pc}

0800266c <grow>:
 800266c:	6883      	ldr	r3, [r0, #8]
 800266e:	b570      	push	{r4, r5, r6, lr}
 8002670:	f853 6c04 	ldr.w	r6, [r3, #-4]
 8002674:	4605      	mov	r5, r0
 8002676:	b116      	cbz	r6, 800267e <grow+0x12>
 8002678:	f06f 00cb 	mvn.w	r0, #203	; 0xcb
 800267c:	e007      	b.n	800268e <grow+0x22>
 800267e:	18cc      	adds	r4, r1, r3
 8002680:	3404      	adds	r4, #4
 8002682:	429c      	cmp	r4, r3
 8002684:	d301      	bcc.n	800268a <grow+0x1e>
 8002686:	42a2      	cmp	r2, r4
 8002688:	d805      	bhi.n	8002696 <grow+0x2a>
 800268a:	f06f 00c8 	mvn.w	r0, #200	; 0xc8
 800268e:	f002 f8f6 	bl	800487e <error>
 8002692:	2000      	movs	r0, #0
 8002694:	bd70      	pop	{r4, r5, r6, pc}
 8002696:	f843 4c04 	str.w	r4, [r3, #-4]
 800269a:	50ce      	str	r6, [r1, r3]
 800269c:	6881      	ldr	r1, [r0, #8]
 800269e:	f7ff ffa7 	bl	80025f0 <pool_free>
 80026a2:	60ac      	str	r4, [r5, #8]
 80026a4:	2001      	movs	r0, #1
 80026a6:	bd70      	pop	{r4, r5, r6, pc}

080026a8 <pool_malloc>:
 80026a8:	e92d 41f0 	stmdb	sp!, {r4, r5, r6, r7, r8, lr}
 80026ac:	1ccc      	adds	r4, r1, #3
 80026ae:	4605      	mov	r5, r0
 80026b0:	4690      	mov	r8, r2
 80026b2:	f024 0403 	bic.w	r4, r4, #3
 80026b6:	b131      	cbz	r1, 80026c6 <pool_malloc+0x1e>
 80026b8:	6883      	ldr	r3, [r0, #8]
 80026ba:	42dc      	cmn	r4, r3
 80026bc:	d306      	bcc.n	80026cc <pool_malloc+0x24>
 80026be:	f06f 00c8 	mvn.w	r0, #200	; 0xc8
 80026c2:	f002 f8dc 	bl	800487e <error>
 80026c6:	2000      	movs	r0, #0
 80026c8:	e8bd 81f0 	ldmia.w	sp!, {r4, r5, r6, r7, r8, pc}
 80026cc:	2702      	movs	r7, #2
 80026ce:	6828      	ldr	r0, [r5, #0]
 80026d0:	2200      	movs	r2, #0
 80026d2:	b1e8      	cbz	r0, 8002710 <pool_malloc+0x68>
 80026d4:	f850 6c04 	ldr.w	r6, [r0, #-4]
 80026d8:	1901      	adds	r1, r0, r4
 80026da:	1d0b      	adds	r3, r1, #4
 80026dc:	42b3      	cmp	r3, r6
 80026de:	f1a0 0e04 	sub.w	lr, r0, #4
 80026e2:	d812      	bhi.n	800270a <pool_malloc+0x62>
 80026e4:	f101 040c 	add.w	r4, r1, #12
 80026e8:	42b4      	cmp	r4, r6
 80026ea:	bf9f      	itttt	ls
 80026ec:	600e      	strls	r6, [r1, #0]
 80026ee:	6801      	ldrls	r1, [r0, #0]
 80026f0:	f840 3c04 	strls.w	r3, [r0, #-4]
 80026f4:	6019      	strls	r1, [r3, #0]
 80026f6:	bf98      	it	ls
 80026f8:	6003      	strls	r3, [r0, #0]
 80026fa:	6803      	ldr	r3, [r0, #0]
 80026fc:	b112      	cbz	r2, 8002704 <pool_malloc+0x5c>
 80026fe:	6013      	str	r3, [r2, #0]
 8002700:	e8bd 81f0 	ldmia.w	sp!, {r4, r5, r6, r7, r8, pc}
 8002704:	602b      	str	r3, [r5, #0]
 8002706:	e8bd 81f0 	ldmia.w	sp!, {r4, r5, r6, r7, r8, pc}
 800270a:	4602      	mov	r2, r0
 800270c:	6800      	ldr	r0, [r0, #0]
 800270e:	e7e0      	b.n	80026d2 <pool_malloc+0x2a>
 8002710:	4628      	mov	r0, r5
 8002712:	4621      	mov	r1, r4
 8002714:	4642      	mov	r2, r8
 8002716:	f7ff ffa9 	bl	800266c <grow>
 800271a:	2800      	cmp	r0, #0
 800271c:	d0d3      	beq.n	80026c6 <pool_malloc+0x1e>
 800271e:	2f01      	cmp	r7, #1
 8002720:	d0d1      	beq.n	80026c6 <pool_malloc+0x1e>
 8002722:	2701      	movs	r7, #1
 8002724:	e7d3      	b.n	80026ce <pool_malloc+0x26>

08002726 <pool_realloc>:
 8002726:	e92d 4ff7 	stmdb	sp!, {r0, r1, r2, r4, r5, r6, r7, r8, r9, sl, fp, lr}
 800272a:	1cd4      	adds	r4, r2, #3
 800272c:	4606      	mov	r6, r0
 800272e:	4691      	mov	r9, r2
 8002730:	469b      	mov	fp, r3
 8002732:	f024 0403 	bic.w	r4, r4, #3
 8002736:	460d      	mov	r5, r1
 8002738:	b931      	cbnz	r1, 8002748 <pool_realloc+0x22>
 800273a:	4621      	mov	r1, r4
 800273c:	461a      	mov	r2, r3
 800273e:	b003      	add	sp, #12
 8002740:	e8bd 4ff0 	ldmia.w	sp!, {r4, r5, r6, r7, r8, r9, sl, fp, lr}
 8002744:	f7ff bfb0 	b.w	80026a8 <pool_malloc>
 8002748:	f1a1 0a04 	sub.w	sl, r1, #4
 800274c:	f851 7c04 	ldr.w	r7, [r1, #-4]
 8002750:	2c00      	cmp	r4, #0
 8002752:	d047      	beq.n	80027e4 <pool_realloc+0xbe>
 8002754:	f7ff ff42 	bl	80025dc <pool_slot_size>
 8002758:	4680      	mov	r8, r0
 800275a:	2302      	movs	r3, #2
 800275c:	6832      	ldr	r2, [r6, #0]
 800275e:	2100      	movs	r1, #0
 8002760:	b18a      	cbz	r2, 8002786 <pool_realloc+0x60>
 8002762:	42ba      	cmp	r2, r7
 8002764:	d80f      	bhi.n	8002786 <pool_realloc+0x60>
 8002766:	d10b      	bne.n	8002780 <pool_realloc+0x5a>
 8002768:	f852 0c04 	ldr.w	r0, [r2, #-4]
 800276c:	f8ca 0000 	str.w	r0, [sl]
 8002770:	6812      	ldr	r2, [r2, #0]
 8002772:	b109      	cbz	r1, 8002778 <pool_realloc+0x52>
 8002774:	600a      	str	r2, [r1, #0]
 8002776:	e000      	b.n	800277a <pool_realloc+0x54>
 8002778:	6032      	str	r2, [r6, #0]
 800277a:	f8da 7000 	ldr.w	r7, [sl]
 800277e:	e002      	b.n	8002786 <pool_realloc+0x60>
 8002780:	4611      	mov	r1, r2
 8002782:	6812      	ldr	r2, [r2, #0]
 8002784:	e7ec      	b.n	8002760 <pool_realloc+0x3a>
 8002786:	4544      	cmp	r4, r8
 8002788:	d804      	bhi.n	8002794 <pool_realloc+0x6e>
 800278a:	1929      	adds	r1, r5, r4
 800278c:	3104      	adds	r1, #4
 800278e:	42b9      	cmp	r1, r7
 8002790:	d911      	bls.n	80027b6 <pool_realloc+0x90>
 8002792:	e01a      	b.n	80027ca <pool_realloc+0xa4>
 8002794:	68b2      	ldr	r2, [r6, #8]
 8002796:	9301      	str	r3, [sp, #4]
 8002798:	4297      	cmp	r7, r2
 800279a:	d1f6      	bne.n	800278a <pool_realloc+0x64>
 800279c:	4630      	mov	r0, r6
 800279e:	ebc8 0104 	rsb	r1, r8, r4
 80027a2:	465a      	mov	r2, fp
 80027a4:	f7ff ff62 	bl	800266c <grow>
 80027a8:	2800      	cmp	r0, #0
 80027aa:	d0ee      	beq.n	800278a <pool_realloc+0x64>
 80027ac:	9b01      	ldr	r3, [sp, #4]
 80027ae:	2b01      	cmp	r3, #1
 80027b0:	d0eb      	beq.n	800278a <pool_realloc+0x64>
 80027b2:	2301      	movs	r3, #1
 80027b4:	e7d2      	b.n	800275c <pool_realloc+0x36>
 80027b6:	1a7b      	subs	r3, r7, r1
 80027b8:	2b07      	cmp	r3, #7
 80027ba:	d916      	bls.n	80027ea <pool_realloc+0xc4>
 80027bc:	512f      	str	r7, [r5, r4]
 80027be:	4630      	mov	r0, r6
 80027c0:	f845 1c04 	str.w	r1, [r5, #-4]
 80027c4:	f7ff ff14 	bl	80025f0 <pool_free>
 80027c8:	e00f      	b.n	80027ea <pool_realloc+0xc4>
 80027ca:	4630      	mov	r0, r6
 80027cc:	4649      	mov	r1, r9
 80027ce:	465a      	mov	r2, fp
 80027d0:	f7ff ff6a 	bl	80026a8 <pool_malloc>
 80027d4:	4604      	mov	r4, r0
 80027d6:	b150      	cbz	r0, 80027ee <pool_realloc+0xc8>
 80027d8:	4629      	mov	r1, r5
 80027da:	4642      	mov	r2, r8
 80027dc:	f002 f9f2 	bl	8004bc4 <memcpy>
 80027e0:	4630      	mov	r0, r6
 80027e2:	4629      	mov	r1, r5
 80027e4:	f7ff ff04 	bl	80025f0 <pool_free>
 80027e8:	e001      	b.n	80027ee <pool_realloc+0xc8>
 80027ea:	4628      	mov	r0, r5
 80027ec:	e000      	b.n	80027f0 <pool_realloc+0xca>
 80027ee:	4620      	mov	r0, r4
 80027f0:	b003      	add	sp, #12
 80027f2:	e8bd 8ff0 	ldmia.w	sp!, {r4, r5, r6, r7, r8, r9, sl, fp, pc}

080027f6 <pool_free_ptr>:
 80027f6:	6880      	ldr	r0, [r0, #8]
 80027f8:	3004      	adds	r0, #4
 80027fa:	4770      	bx	lr

080027fc <pool_check>:
 80027fc:	b538      	push	{r3, r4, r5, lr}
 80027fe:	6845      	ldr	r5, [r0, #4]
 8002800:	b14d      	cbz	r5, 8002816 <pool_check+0x1a>
 8002802:	6882      	ldr	r2, [r0, #8]
 8002804:	b13a      	cbz	r2, 8002816 <pool_check+0x1a>
 8002806:	4295      	cmp	r5, r2
 8002808:	d805      	bhi.n	8002816 <pool_check+0x1a>
 800280a:	6803      	ldr	r3, [r0, #0]
 800280c:	4293      	cmp	r3, r2
 800280e:	d802      	bhi.n	8002816 <pool_check+0x1a>
 8002810:	f852 4c04 	ldr.w	r4, [r2, #-4]
 8002814:	b12c      	cbz	r4, 8002822 <pool_check+0x26>
 8002816:	f06f 00cb 	mvn.w	r0, #203	; 0xcb
 800281a:	f002 f830 	bl	800487e <error>
 800281e:	2000      	movs	r0, #0
 8002820:	bd38      	pop	{r3, r4, r5, pc}
 8002822:	4291      	cmp	r1, r2
 8002824:	d209      	bcs.n	800283a <pool_check+0x3e>
 8002826:	f06f 00c8 	mvn.w	r0, #200	; 0xc8
 800282a:	e7f6      	b.n	800281a <pool_check+0x1e>
 800282c:	4295      	cmp	r5, r2
 800282e:	d8f2      	bhi.n	8002816 <pool_check+0x1a>
 8002830:	f855 1c04 	ldr.w	r1, [r5, #-4]
 8002834:	462c      	mov	r4, r5
 8002836:	b149      	cbz	r1, 800284c <pool_check+0x50>
 8002838:	460d      	mov	r5, r1
 800283a:	42ac      	cmp	r4, r5
 800283c:	d9f6      	bls.n	800282c <pool_check+0x30>
 800283e:	e7ea      	b.n	8002816 <pool_check+0x1a>
 8002840:	4299      	cmp	r1, r3
 8002842:	d8e8      	bhi.n	8002816 <pool_check+0x1a>
 8002844:	4293      	cmp	r3, r2
 8002846:	d8e6      	bhi.n	8002816 <pool_check+0x1a>
 8002848:	4619      	mov	r1, r3
 800284a:	681b      	ldr	r3, [r3, #0]
 800284c:	2b00      	cmp	r3, #0
 800284e:	d1f7      	bne.n	8002840 <pool_check+0x44>
 8002850:	2001      	movs	r0, #1
 8002852:	bd38      	pop	{r3, r4, r5, pc}

08002854 <pool_stat>:
 8002854:	b570      	push	{r4, r5, r6, lr}
 8002856:	4606      	mov	r6, r0
 8002858:	4615      	mov	r5, r2
 800285a:	4608      	mov	r0, r1
 800285c:	2214      	movs	r2, #20
 800285e:	460c      	mov	r4, r1
 8002860:	2100      	movs	r1, #0
 8002862:	f002 fa89 	bl	8004d78 <memset>
 8002866:	4629      	mov	r1, r5
 8002868:	4630      	mov	r0, r6
 800286a:	f7ff ffc7 	bl	80027fc <pool_check>
 800286e:	68b1      	ldr	r1, [r6, #8]
 8002870:	b920      	cbnz	r0, 800287c <pool_stat+0x28>
 8002872:	f101 030c 	add.w	r3, r1, #12
 8002876:	429d      	cmp	r5, r3
 8002878:	d220      	bcs.n	80028bc <pool_stat+0x68>
 800287a:	bd70      	pop	{r4, r5, r6, pc}
 800287c:	e896 0005 	ldmia.w	r6, {r0, r2}
 8002880:	428a      	cmp	r2, r1
 8002882:	d0f6      	beq.n	8002872 <pool_stat+0x1e>
 8002884:	f852 6c04 	ldr.w	r6, [r2, #-4]
 8002888:	f06f 0303 	mvn.w	r3, #3
 800288c:	1a9b      	subs	r3, r3, r2
 800288e:	4282      	cmp	r2, r0
 8002890:	4433      	add	r3, r6
 8002892:	d10b      	bne.n	80028ac <pool_stat+0x58>
 8002894:	6820      	ldr	r0, [r4, #0]
 8002896:	3001      	adds	r0, #1
 8002898:	6020      	str	r0, [r4, #0]
 800289a:	6920      	ldr	r0, [r4, #16]
 800289c:	4283      	cmp	r3, r0
 800289e:	68a0      	ldr	r0, [r4, #8]
 80028a0:	bf88      	it	hi
 80028a2:	6123      	strhi	r3, [r4, #16]
 80028a4:	4403      	add	r3, r0
 80028a6:	60a3      	str	r3, [r4, #8]
 80028a8:	6810      	ldr	r0, [r2, #0]
 80028aa:	e005      	b.n	80028b8 <pool_stat+0x64>
 80028ac:	6862      	ldr	r2, [r4, #4]
 80028ae:	3201      	adds	r2, #1
 80028b0:	6062      	str	r2, [r4, #4]
 80028b2:	68e2      	ldr	r2, [r4, #12]
 80028b4:	4413      	add	r3, r2
 80028b6:	60e3      	str	r3, [r4, #12]
 80028b8:	4632      	mov	r2, r6
 80028ba:	e7e1      	b.n	8002880 <pool_stat+0x2c>
 80028bc:	f06f 0307 	mvn.w	r3, #7
 80028c0:	1a5b      	subs	r3, r3, r1
 80028c2:	441d      	add	r5, r3
 80028c4:	6823      	ldr	r3, [r4, #0]
 80028c6:	3301      	adds	r3, #1
 80028c8:	6023      	str	r3, [r4, #0]
 80028ca:	6923      	ldr	r3, [r4, #16]
 80028cc:	429d      	cmp	r5, r3
 80028ce:	68a3      	ldr	r3, [r4, #8]
 80028d0:	bf88      	it	hi
 80028d2:	6125      	strhi	r5, [r4, #16]
 80028d4:	441d      	add	r5, r3
 80028d6:	60a5      	str	r5, [r4, #8]
 80028d8:	bd70      	pop	{r4, r5, r6, pc}
 80028da:	0000      	movs	r0, r0

080028dc <pad_spaces>:
 80028dc:	b570      	push	{r4, r5, r6, lr}
 80028de:	4604      	mov	r4, r0
 80028e0:	460d      	mov	r5, r1
 80028e2:	4616      	mov	r6, r2
 80028e4:	2c0a      	cmp	r4, #10
 80028e6:	dd05      	ble.n	80028f4 <pad_spaces+0x18>
 80028e8:	4807      	ldr	r0, [pc, #28]	; (8002908 <pad_spaces+0x2c>)
 80028ea:	210a      	movs	r1, #10
 80028ec:	4632      	mov	r2, r6
 80028ee:	47a8      	blx	r5
 80028f0:	3c0a      	subs	r4, #10
 80028f2:	e7f7      	b.n	80028e4 <pad_spaces+0x8>
 80028f4:	2c00      	cmp	r4, #0
 80028f6:	dd06      	ble.n	8002906 <pad_spaces+0x2a>
 80028f8:	4621      	mov	r1, r4
 80028fa:	4632      	mov	r2, r6
 80028fc:	462b      	mov	r3, r5
 80028fe:	e8bd 4070 	ldmia.w	sp!, {r4, r5, r6, lr}
 8002902:	4801      	ldr	r0, [pc, #4]	; (8002908 <pad_spaces+0x2c>)
 8002904:	4718      	bx	r3
 8002906:	bd70      	pop	{r4, r5, r6, pc}
 8002908:	0800553f 	.word	0x0800553f

0800290c <pad_zeroes>:
 800290c:	b570      	push	{r4, r5, r6, lr}
 800290e:	4604      	mov	r4, r0
 8002910:	460d      	mov	r5, r1
 8002912:	4616      	mov	r6, r2
 8002914:	2c0a      	cmp	r4, #10
 8002916:	dd05      	ble.n	8002924 <pad_zeroes+0x18>
 8002918:	4807      	ldr	r0, [pc, #28]	; (8002938 <pad_zeroes+0x2c>)
 800291a:	210a      	movs	r1, #10
 800291c:	4632      	mov	r2, r6
 800291e:	47a8      	blx	r5
 8002920:	3c0a      	subs	r4, #10
 8002922:	e7f7      	b.n	8002914 <pad_zeroes+0x8>
 8002924:	2c00      	cmp	r4, #0
 8002926:	dd06      	ble.n	8002936 <pad_zeroes+0x2a>
 8002928:	4621      	mov	r1, r4
 800292a:	4632      	mov	r2, r6
 800292c:	462b      	mov	r3, r5
 800292e:	e8bd 4070 	ldmia.w	sp!, {r4, r5, r6, lr}
 8002932:	4801      	ldr	r0, [pc, #4]	; (8002938 <pad_zeroes+0x2c>)
 8002934:	4718      	bx	r3
 8002936:	bd70      	pop	{r4, r5, r6, pc}
 8002938:	08005528 	.word	0x08005528

0800293c <sprintf_handler>:
 800293c:	b538      	push	{r3, r4, r5, lr}
 800293e:	4603      	mov	r3, r0
 8002940:	460c      	mov	r4, r1
 8002942:	4615      	mov	r5, r2
 8002944:	6810      	ldr	r0, [r2, #0]
 8002946:	4619      	mov	r1, r3
 8002948:	4622      	mov	r2, r4
 800294a:	f002 f93b 	bl	8004bc4 <memcpy>
 800294e:	682b      	ldr	r3, [r5, #0]
 8002950:	441c      	add	r4, r3
 8002952:	602c      	str	r4, [r5, #0]
 8002954:	bd38      	pop	{r3, r4, r5, pc}

08002956 <__atou>:
 8002956:	4602      	mov	r2, r0
 8002958:	b530      	push	{r4, r5, lr}
 800295a:	2300      	movs	r3, #0
 800295c:	1a14      	subs	r4, r2, r0
 800295e:	428c      	cmp	r4, r1
 8002960:	da0a      	bge.n	8002978 <__atou+0x22>
 8002962:	f812 4b01 	ldrb.w	r4, [r2], #1
 8002966:	f1a4 0530 	sub.w	r5, r4, #48	; 0x30
 800296a:	2d09      	cmp	r5, #9
 800296c:	d804      	bhi.n	8002978 <__atou+0x22>
 800296e:	250a      	movs	r5, #10
 8002970:	fb05 4303 	mla	r3, r5, r3, r4
 8002974:	3b30      	subs	r3, #48	; 0x30
 8002976:	e7f1      	b.n	800295c <__atou+0x6>
 8002978:	4618      	mov	r0, r3
 800297a:	bd30      	pop	{r4, r5, pc}

0800297c <__utoa>:
 800297c:	b5f8      	push	{r3, r4, r5, r6, r7, lr}
 800297e:	b1c1      	cbz	r1, 80029b2 <__utoa+0x36>
 8002980:	f100 060b 	add.w	r6, r0, #11
 8002984:	2400      	movs	r4, #0
 8002986:	fbb1 f5f2 	udiv	r5, r1, r2
 800298a:	fb02 1115 	mls	r1, r2, r5, r1
 800298e:	b2c9      	uxtb	r1, r1
 8002990:	2909      	cmp	r1, #9
 8002992:	d905      	bls.n	80029a0 <__utoa+0x24>
 8002994:	2b00      	cmp	r3, #0
 8002996:	bf14      	ite	ne
 8002998:	2737      	movne	r7, #55	; 0x37
 800299a:	2757      	moveq	r7, #87	; 0x57
 800299c:	4439      	add	r1, r7
 800299e:	e000      	b.n	80029a2 <__utoa+0x26>
 80029a0:	3130      	adds	r1, #48	; 0x30
 80029a2:	b2c9      	uxtb	r1, r1
 80029a4:	f806 1d01 	strb.w	r1, [r6, #-1]!
 80029a8:	3401      	adds	r4, #1
 80029aa:	4629      	mov	r1, r5
 80029ac:	2d00      	cmp	r5, #0
 80029ae:	d1ea      	bne.n	8002986 <__utoa+0xa>
 80029b0:	e002      	b.n	80029b8 <__utoa+0x3c>
 80029b2:	2330      	movs	r3, #48	; 0x30
 80029b4:	7283      	strb	r3, [r0, #10]
 80029b6:	2401      	movs	r4, #1
 80029b8:	f1c4 010b 	rsb	r1, r4, #11
 80029bc:	4401      	add	r1, r0
 80029be:	4622      	mov	r2, r4
 80029c0:	f002 f976 	bl	8004cb0 <memmove>
 80029c4:	4620      	mov	r0, r4
 80029c6:	bdf8      	pop	{r3, r4, r5, r6, r7, pc}

080029c8 <size_in_bytes>:
 80029c8:	f242 720e 	movw	r2, #9998	; 0x270e
 80029cc:	4290      	cmp	r0, r2
 80029ce:	b538      	push	{r3, r4, r5, lr}
 80029d0:	4603      	mov	r3, r0
 80029d2:	460c      	mov	r4, r1
 80029d4:	d905      	bls.n	80029e2 <size_in_bytes+0x1a>
 80029d6:	0a83      	lsrs	r3, r0, #10
 80029d8:	4293      	cmp	r3, r2
 80029da:	d904      	bls.n	80029e6 <size_in_bytes+0x1e>
 80029dc:	0a9b      	lsrs	r3, r3, #10
 80029de:	2502      	movs	r5, #2
 80029e0:	e002      	b.n	80029e8 <size_in_bytes+0x20>
 80029e2:	2500      	movs	r5, #0
 80029e4:	e000      	b.n	80029e8 <size_in_bytes+0x20>
 80029e6:	2501      	movs	r5, #1
 80029e8:	4619      	mov	r1, r3
 80029ea:	4620      	mov	r0, r4
 80029ec:	220a      	movs	r2, #10
 80029ee:	2300      	movs	r3, #0
 80029f0:	f7ff ffc4 	bl	800297c <__utoa>
 80029f4:	b135      	cbz	r5, 8002a04 <size_in_bytes+0x3c>
 80029f6:	4a05      	ldr	r2, [pc, #20]	; (8002a0c <size_in_bytes+0x44>)
 80029f8:	1c43      	adds	r3, r0, #1
 80029fa:	5caa      	ldrb	r2, [r5, r2]
 80029fc:	5422      	strb	r2, [r4, r0]
 80029fe:	2242      	movs	r2, #66	; 0x42
 8002a00:	54e2      	strb	r2, [r4, r3]
 8002a02:	3002      	adds	r0, #2
 8002a04:	2300      	movs	r3, #0
 8002a06:	5423      	strb	r3, [r4, r0]
 8002a08:	bd38      	pop	{r3, r4, r5, pc}
 8002a0a:	bf00      	nop
 8002a0c:	08005531 	.word	0x08005531

08002a10 <__format>:
 8002a10:	e92d 4ff0 	stmdb	sp!, {r4, r5, r6, r7, r8, r9, sl, fp, lr}
 8002a14:	4699      	mov	r9, r3
 8002a16:	2300      	movs	r3, #0
 8002a18:	4682      	mov	sl, r0
 8002a1a:	4690      	mov	r8, r2
 8002a1c:	460c      	mov	r4, r1
 8002a1e:	461f      	mov	r7, r3
 8002a20:	461d      	mov	r5, r3
 8002a22:	b08b      	sub	sp, #44	; 0x2c
 8002a24:	9303      	str	r3, [sp, #12]
 8002a26:	f81a 3007 	ldrb.w	r3, [sl, r7]
 8002a2a:	2b00      	cmp	r3, #0
 8002a2c:	f000 81b2 	beq.w	8002d94 <__format+0x384>
 8002a30:	2b25      	cmp	r3, #37	; 0x25
 8002a32:	f107 0101 	add.w	r1, r7, #1
 8002a36:	f040 81a7 	bne.w	8002d88 <__format+0x378>
 8002a3a:	f81a 3001 	ldrb.w	r3, [sl, r1]
 8002a3e:	460e      	mov	r6, r1
 8002a40:	2b25      	cmp	r3, #37	; 0x25
 8002a42:	d107      	bne.n	8002a54 <__format+0x44>
 8002a44:	eb0a 0005 	add.w	r0, sl, r5
 8002a48:	1b49      	subs	r1, r1, r5
 8002a4a:	464a      	mov	r2, r9
 8002a4c:	47c0      	blx	r8
 8002a4e:	1cbd      	adds	r5, r7, #2
 8002a50:	9401      	str	r4, [sp, #4]
 8002a52:	e19c      	b.n	8002d8e <__format+0x37e>
 8002a54:	42af      	cmp	r7, r5
 8002a56:	d904      	bls.n	8002a62 <__format+0x52>
 8002a58:	eb0a 0005 	add.w	r0, sl, r5
 8002a5c:	1b79      	subs	r1, r7, r5
 8002a5e:	464a      	mov	r2, r9
 8002a60:	47c0      	blx	r8
 8002a62:	f04f 0b01 	mov.w	fp, #1
 8002a66:	f81a 3006 	ldrb.w	r3, [sl, r6]
 8002a6a:	eb0a 0006 	add.w	r0, sl, r6
 8002a6e:	2b00      	cmp	r3, #0
 8002a70:	f000 8198 	beq.w	8002da4 <__format+0x394>
 8002a74:	f01b 0f01 	tst.w	fp, #1
 8002a78:	d01d      	beq.n	8002ab6 <__format+0xa6>
 8002a7a:	2b2b      	cmp	r3, #43	; 0x2b
 8002a7c:	d011      	beq.n	8002aa2 <__format+0x92>
 8002a7e:	d806      	bhi.n	8002a8e <__format+0x7e>
 8002a80:	2b20      	cmp	r3, #32
 8002a82:	d011      	beq.n	8002aa8 <__format+0x98>
 8002a84:	2b23      	cmp	r3, #35	; 0x23
 8002a86:	d113      	bne.n	8002ab0 <__format+0xa0>
 8002a88:	f04b 0b10 	orr.w	fp, fp, #16
 8002a8c:	e00e      	b.n	8002aac <__format+0x9c>
 8002a8e:	2b2d      	cmp	r3, #45	; 0x2d
 8002a90:	d004      	beq.n	8002a9c <__format+0x8c>
 8002a92:	2b30      	cmp	r3, #48	; 0x30
 8002a94:	d10c      	bne.n	8002ab0 <__format+0xa0>
 8002a96:	f04b 0b20 	orr.w	fp, fp, #32
 8002a9a:	e007      	b.n	8002aac <__format+0x9c>
 8002a9c:	f04b 0b02 	orr.w	fp, fp, #2
 8002aa0:	e004      	b.n	8002aac <__format+0x9c>
 8002aa2:	f04b 0b04 	orr.w	fp, fp, #4
 8002aa6:	e001      	b.n	8002aac <__format+0x9c>
 8002aa8:	f04b 0b08 	orr.w	fp, fp, #8
 8002aac:	3601      	adds	r6, #1
 8002aae:	e7da      	b.n	8002a66 <__format+0x56>
 8002ab0:	f00b 0bfe 	and.w	fp, fp, #254	; 0xfe
 8002ab4:	e7d7      	b.n	8002a66 <__format+0x56>
 8002ab6:	2b2a      	cmp	r3, #42	; 0x2a
 8002ab8:	465f      	mov	r7, fp
 8002aba:	d001      	beq.n	8002ac0 <__format+0xb0>
 8002abc:	4602      	mov	r2, r0
 8002abe:	e004      	b.n	8002aca <__format+0xba>
 8002ac0:	6823      	ldr	r3, [r4, #0]
 8002ac2:	1c75      	adds	r5, r6, #1
 8002ac4:	9302      	str	r3, [sp, #8]
 8002ac6:	3404      	adds	r4, #4
 8002ac8:	e00f      	b.n	8002aea <__format+0xda>
 8002aca:	ebca 0502 	rsb	r5, sl, r2
 8002ace:	f812 3b01 	ldrb.w	r3, [r2], #1
 8002ad2:	3b30      	subs	r3, #48	; 0x30
 8002ad4:	2b09      	cmp	r3, #9
 8002ad6:	d9f8      	bls.n	8002aca <__format+0xba>
 8002ad8:	42b5      	cmp	r5, r6
 8002ada:	d904      	bls.n	8002ae6 <__format+0xd6>
 8002adc:	1ba9      	subs	r1, r5, r6
 8002ade:	f7ff ff3a 	bl	8002956 <__atou>
 8002ae2:	9002      	str	r0, [sp, #8]
 8002ae4:	e001      	b.n	8002aea <__format+0xda>
 8002ae6:	2300      	movs	r3, #0
 8002ae8:	9302      	str	r3, [sp, #8]
 8002aea:	f81a 3005 	ldrb.w	r3, [sl, r5]
 8002aee:	2b2e      	cmp	r3, #46	; 0x2e
 8002af0:	d11a      	bne.n	8002b28 <__format+0x118>
 8002af2:	1c69      	adds	r1, r5, #1
 8002af4:	f81a 3001 	ldrb.w	r3, [sl, r1]
 8002af8:	eb0a 0001 	add.w	r0, sl, r1
 8002afc:	2b2a      	cmp	r3, #42	; 0x2a
 8002afe:	d001      	beq.n	8002b04 <__format+0xf4>
 8002b00:	460d      	mov	r5, r1
 8002b02:	e003      	b.n	8002b0c <__format+0xfc>
 8002b04:	6826      	ldr	r6, [r4, #0]
 8002b06:	3502      	adds	r5, #2
 8002b08:	3404      	adds	r4, #4
 8002b0a:	e00e      	b.n	8002b2a <__format+0x11a>
 8002b0c:	f81a 3005 	ldrb.w	r3, [sl, r5]
 8002b10:	3b30      	subs	r3, #48	; 0x30
 8002b12:	2b09      	cmp	r3, #9
 8002b14:	d801      	bhi.n	8002b1a <__format+0x10a>
 8002b16:	3501      	adds	r5, #1
 8002b18:	e7f8      	b.n	8002b0c <__format+0xfc>
 8002b1a:	428d      	cmp	r5, r1
 8002b1c:	d904      	bls.n	8002b28 <__format+0x118>
 8002b1e:	1a69      	subs	r1, r5, r1
 8002b20:	f7ff ff19 	bl	8002956 <__atou>
 8002b24:	4606      	mov	r6, r0
 8002b26:	e000      	b.n	8002b2a <__format+0x11a>
 8002b28:	2601      	movs	r6, #1
 8002b2a:	f81a 2005 	ldrb.w	r2, [sl, r5]
 8002b2e:	1c6b      	adds	r3, r5, #1
 8002b30:	2a68      	cmp	r2, #104	; 0x68
 8002b32:	d003      	beq.n	8002b3c <__format+0x12c>
 8002b34:	2a6c      	cmp	r2, #108	; 0x6c
 8002b36:	bf08      	it	eq
 8002b38:	461d      	moveq	r5, r3
 8002b3a:	e002      	b.n	8002b42 <__format+0x132>
 8002b3c:	461d      	mov	r5, r3
 8002b3e:	f04b 0740 	orr.w	r7, fp, #64	; 0x40
 8002b42:	eb0a 0305 	add.w	r3, sl, r5
 8002b46:	9304      	str	r3, [sp, #16]
 8002b48:	f81a 3005 	ldrb.w	r3, [sl, r5]
 8002b4c:	2b69      	cmp	r3, #105	; 0x69
 8002b4e:	d02d      	beq.n	8002bac <__format+0x19c>
 8002b50:	d80a      	bhi.n	8002b68 <__format+0x158>
 8002b52:	2b62      	cmp	r3, #98	; 0x62
 8002b54:	f000 809c 	beq.w	8002c90 <__format+0x280>
 8002b58:	d801      	bhi.n	8002b5e <__format+0x14e>
 8002b5a:	2b58      	cmp	r3, #88	; 0x58
 8002b5c:	e00d      	b.n	8002b7a <__format+0x16a>
 8002b5e:	2b63      	cmp	r3, #99	; 0x63
 8002b60:	d00d      	beq.n	8002b7e <__format+0x16e>
 8002b62:	2b64      	cmp	r3, #100	; 0x64
 8002b64:	d022      	beq.n	8002bac <__format+0x19c>
 8002b66:	e0a6      	b.n	8002cb6 <__format+0x2a6>
 8002b68:	2b73      	cmp	r3, #115	; 0x73
 8002b6a:	d00f      	beq.n	8002b8c <__format+0x17c>
 8002b6c:	d802      	bhi.n	8002b74 <__format+0x164>
 8002b6e:	2b6f      	cmp	r3, #111	; 0x6f
 8002b70:	d072      	beq.n	8002c58 <__format+0x248>
 8002b72:	e0a0      	b.n	8002cb6 <__format+0x2a6>
 8002b74:	2b75      	cmp	r3, #117	; 0x75
 8002b76:	d03f      	beq.n	8002bf8 <__format+0x1e8>
 8002b78:	2b78      	cmp	r3, #120	; 0x78
 8002b7a:	d052      	beq.n	8002c22 <__format+0x212>
 8002b7c:	e09b      	b.n	8002cb6 <__format+0x2a6>
 8002b7e:	1d23      	adds	r3, r4, #4
 8002b80:	9301      	str	r3, [sp, #4]
 8002b82:	6823      	ldr	r3, [r4, #0]
 8002b84:	2401      	movs	r4, #1
 8002b86:	f88d 301b 	strb.w	r3, [sp, #27]
 8002b8a:	e098      	b.n	8002cbe <__format+0x2ae>
 8002b8c:	1d23      	adds	r3, r4, #4
 8002b8e:	9301      	str	r3, [sp, #4]
 8002b90:	6823      	ldr	r3, [r4, #0]
 8002b92:	4618      	mov	r0, r3
 8002b94:	9303      	str	r3, [sp, #12]
 8002b96:	f002 f99b 	bl	8004ed0 <strlen>
 8002b9a:	2e01      	cmp	r6, #1
 8002b9c:	4604      	mov	r4, r0
 8002b9e:	f240 808e 	bls.w	8002cbe <__format+0x2ae>
 8002ba2:	4286      	cmp	r6, r0
 8002ba4:	f080 808b 	bcs.w	8002cbe <__format+0x2ae>
 8002ba8:	4634      	mov	r4, r6
 8002baa:	e088      	b.n	8002cbe <__format+0x2ae>
 8002bac:	06b9      	lsls	r1, r7, #26
 8002bae:	d503      	bpl.n	8002bb8 <__format+0x1a8>
 8002bb0:	9b02      	ldr	r3, [sp, #8]
 8002bb2:	429e      	cmp	r6, r3
 8002bb4:	bf38      	it	cc
 8002bb6:	461e      	movcc	r6, r3
 8002bb8:	1d23      	adds	r3, r4, #4
 8002bba:	6824      	ldr	r4, [r4, #0]
 8002bbc:	067a      	lsls	r2, r7, #25
 8002bbe:	bf48      	it	mi
 8002bc0:	b224      	sxthmi	r4, r4
 8002bc2:	2c00      	cmp	r4, #0
 8002bc4:	9301      	str	r3, [sp, #4]
 8002bc6:	da0b      	bge.n	8002be0 <__format+0x1d0>
 8002bc8:	4261      	negs	r1, r4
 8002bca:	a807      	add	r0, sp, #28
 8002bcc:	220a      	movs	r2, #10
 8002bce:	2300      	movs	r3, #0
 8002bd0:	f7ff fed4 	bl	800297c <__utoa>
 8002bd4:	f067 077f 	orn	r7, r7, #127	; 0x7f
 8002bd8:	4683      	mov	fp, r0
 8002bda:	1c44      	adds	r4, r0, #1
 8002bdc:	b2ff      	uxtb	r7, r7
 8002bde:	e064      	b.n	8002caa <__format+0x29a>
 8002be0:	d062      	beq.n	8002ca8 <__format+0x298>
 8002be2:	4621      	mov	r1, r4
 8002be4:	a807      	add	r0, sp, #28
 8002be6:	220a      	movs	r2, #10
 8002be8:	2300      	movs	r3, #0
 8002bea:	f7ff fec7 	bl	800297c <__utoa>
 8002bee:	f017 0f0c 	tst.w	r7, #12
 8002bf2:	4604      	mov	r4, r0
 8002bf4:	4683      	mov	fp, r0
 8002bf6:	e046      	b.n	8002c86 <__format+0x276>
 8002bf8:	06bb      	lsls	r3, r7, #26
 8002bfa:	d503      	bpl.n	8002c04 <__format+0x1f4>
 8002bfc:	9b02      	ldr	r3, [sp, #8]
 8002bfe:	429e      	cmp	r6, r3
 8002c00:	bf38      	it	cc
 8002c02:	461e      	movcc	r6, r3
 8002c04:	6821      	ldr	r1, [r4, #0]
 8002c06:	0678      	lsls	r0, r7, #25
 8002c08:	f104 0304 	add.w	r3, r4, #4
 8002c0c:	bf48      	it	mi
 8002c0e:	b289      	uxthmi	r1, r1
 8002c10:	9301      	str	r3, [sp, #4]
 8002c12:	2900      	cmp	r1, #0
 8002c14:	d03a      	beq.n	8002c8c <__format+0x27c>
 8002c16:	a807      	add	r0, sp, #28
 8002c18:	220a      	movs	r2, #10
 8002c1a:	2300      	movs	r3, #0
 8002c1c:	f7ff feae 	bl	800297c <__utoa>
 8002c20:	e041      	b.n	8002ca6 <__format+0x296>
 8002c22:	06b9      	lsls	r1, r7, #26
 8002c24:	d503      	bpl.n	8002c2e <__format+0x21e>
 8002c26:	9a02      	ldr	r2, [sp, #8]
 8002c28:	4296      	cmp	r6, r2
 8002c2a:	bf38      	it	cc
 8002c2c:	4616      	movcc	r6, r2
 8002c2e:	1d22      	adds	r2, r4, #4
 8002c30:	6821      	ldr	r1, [r4, #0]
 8002c32:	9201      	str	r2, [sp, #4]
 8002c34:	067a      	lsls	r2, r7, #25
 8002c36:	bf48      	it	mi
 8002c38:	b289      	uxthmi	r1, r1
 8002c3a:	b339      	cbz	r1, 8002c8c <__format+0x27c>
 8002c3c:	f1a3 0458 	sub.w	r4, r3, #88	; 0x58
 8002c40:	4263      	negs	r3, r4
 8002c42:	4163      	adcs	r3, r4
 8002c44:	a807      	add	r0, sp, #28
 8002c46:	2210      	movs	r2, #16
 8002c48:	f7ff fe98 	bl	800297c <__utoa>
 8002c4c:	06fb      	lsls	r3, r7, #27
 8002c4e:	4604      	mov	r4, r0
 8002c50:	4683      	mov	fp, r0
 8002c52:	d52a      	bpl.n	8002caa <__format+0x29a>
 8002c54:	3402      	adds	r4, #2
 8002c56:	e028      	b.n	8002caa <__format+0x29a>
 8002c58:	06bb      	lsls	r3, r7, #26
 8002c5a:	d503      	bpl.n	8002c64 <__format+0x254>
 8002c5c:	9b02      	ldr	r3, [sp, #8]
 8002c5e:	429e      	cmp	r6, r3
 8002c60:	bf38      	it	cc
 8002c62:	461e      	movcc	r6, r3
 8002c64:	6821      	ldr	r1, [r4, #0]
 8002c66:	0678      	lsls	r0, r7, #25
 8002c68:	f104 0304 	add.w	r3, r4, #4
 8002c6c:	bf48      	it	mi
 8002c6e:	b289      	uxthmi	r1, r1
 8002c70:	9301      	str	r3, [sp, #4]
 8002c72:	b159      	cbz	r1, 8002c8c <__format+0x27c>
 8002c74:	a807      	add	r0, sp, #28
 8002c76:	2208      	movs	r2, #8
 8002c78:	2300      	movs	r3, #0
 8002c7a:	f7ff fe7f 	bl	800297c <__utoa>
 8002c7e:	4604      	mov	r4, r0
 8002c80:	4683      	mov	fp, r0
 8002c82:	f017 0f10 	tst.w	r7, #16
 8002c86:	d010      	beq.n	8002caa <__format+0x29a>
 8002c88:	3401      	adds	r4, #1
 8002c8a:	e00e      	b.n	8002caa <__format+0x29a>
 8002c8c:	460c      	mov	r4, r1
 8002c8e:	e00b      	b.n	8002ca8 <__format+0x298>
 8002c90:	6820      	ldr	r0, [r4, #0]
 8002c92:	067a      	lsls	r2, r7, #25
 8002c94:	f104 0304 	add.w	r3, r4, #4
 8002c98:	bf48      	it	mi
 8002c9a:	b280      	uxthmi	r0, r0
 8002c9c:	9301      	str	r3, [sp, #4]
 8002c9e:	b110      	cbz	r0, 8002ca6 <__format+0x296>
 8002ca0:	a907      	add	r1, sp, #28
 8002ca2:	f7ff fe91 	bl	80029c8 <size_in_bytes>
 8002ca6:	4604      	mov	r4, r0
 8002ca8:	46a3      	mov	fp, r4
 8002caa:	45b3      	cmp	fp, r6
 8002cac:	d209      	bcs.n	8002cc2 <__format+0x2b2>
 8002cae:	ebcb 0404 	rsb	r4, fp, r4
 8002cb2:	4434      	add	r4, r6
 8002cb4:	e005      	b.n	8002cc2 <__format+0x2b2>
 8002cb6:	9401      	str	r4, [sp, #4]
 8002cb8:	2400      	movs	r4, #0
 8002cba:	46a3      	mov	fp, r4
 8002cbc:	e001      	b.n	8002cc2 <__format+0x2b2>
 8002cbe:	f04f 0b00 	mov.w	fp, #0
 8002cc2:	f007 0202 	and.w	r2, r7, #2
 8002cc6:	f002 03ff 	and.w	r3, r2, #255	; 0xff
 8002cca:	9305      	str	r3, [sp, #20]
 8002ccc:	b92a      	cbnz	r2, 8002cda <__format+0x2ca>
 8002cce:	9b02      	ldr	r3, [sp, #8]
 8002cd0:	4641      	mov	r1, r8
 8002cd2:	1b18      	subs	r0, r3, r4
 8002cd4:	464a      	mov	r2, r9
 8002cd6:	f7ff fe01 	bl	80028dc <pad_spaces>
 8002cda:	9b04      	ldr	r3, [sp, #16]
 8002cdc:	3501      	adds	r5, #1
 8002cde:	781a      	ldrb	r2, [r3, #0]
 8002ce0:	2a69      	cmp	r2, #105	; 0x69
 8002ce2:	d01c      	beq.n	8002d1e <__format+0x30e>
 8002ce4:	d809      	bhi.n	8002cfa <__format+0x2ea>
 8002ce6:	2a62      	cmp	r2, #98	; 0x62
 8002ce8:	d019      	beq.n	8002d1e <__format+0x30e>
 8002cea:	d801      	bhi.n	8002cf0 <__format+0x2e0>
 8002cec:	2a58      	cmp	r2, #88	; 0x58
 8002cee:	e00d      	b.n	8002d0c <__format+0x2fc>
 8002cf0:	2a63      	cmp	r2, #99	; 0x63
 8002cf2:	d00d      	beq.n	8002d10 <__format+0x300>
 8002cf4:	2a64      	cmp	r2, #100	; 0x64
 8002cf6:	d012      	beq.n	8002d1e <__format+0x30e>
 8002cf8:	e03d      	b.n	8002d76 <__format+0x366>
 8002cfa:	2a73      	cmp	r2, #115	; 0x73
 8002cfc:	d00c      	beq.n	8002d18 <__format+0x308>
 8002cfe:	d802      	bhi.n	8002d06 <__format+0x2f6>
 8002d00:	2a6f      	cmp	r2, #111	; 0x6f
 8002d02:	d023      	beq.n	8002d4c <__format+0x33c>
 8002d04:	e037      	b.n	8002d76 <__format+0x366>
 8002d06:	2a75      	cmp	r2, #117	; 0x75
 8002d08:	d009      	beq.n	8002d1e <__format+0x30e>
 8002d0a:	2a78      	cmp	r2, #120	; 0x78
 8002d0c:	d016      	beq.n	8002d3c <__format+0x32c>
 8002d0e:	e032      	b.n	8002d76 <__format+0x366>
 8002d10:	f10d 001b 	add.w	r0, sp, #27
 8002d14:	2101      	movs	r1, #1
 8002d16:	e02c      	b.n	8002d72 <__format+0x362>
 8002d18:	9803      	ldr	r0, [sp, #12]
 8002d1a:	4621      	mov	r1, r4
 8002d1c:	e029      	b.n	8002d72 <__format+0x362>
 8002d1e:	063b      	lsls	r3, r7, #24
 8002d20:	d501      	bpl.n	8002d26 <__format+0x316>
 8002d22:	4823      	ldr	r0, [pc, #140]	; (8002db0 <__format+0x3a0>)
 8002d24:	e018      	b.n	8002d58 <__format+0x348>
 8002d26:	f1bb 0f00 	cmp.w	fp, #0
 8002d2a:	d018      	beq.n	8002d5e <__format+0x34e>
 8002d2c:	0778      	lsls	r0, r7, #29
 8002d2e:	d501      	bpl.n	8002d34 <__format+0x324>
 8002d30:	4820      	ldr	r0, [pc, #128]	; (8002db4 <__format+0x3a4>)
 8002d32:	e011      	b.n	8002d58 <__format+0x348>
 8002d34:	0739      	lsls	r1, r7, #28
 8002d36:	d512      	bpl.n	8002d5e <__format+0x34e>
 8002d38:	481f      	ldr	r0, [pc, #124]	; (8002db8 <__format+0x3a8>)
 8002d3a:	e00d      	b.n	8002d58 <__format+0x348>
 8002d3c:	f1bb 0f00 	cmp.w	fp, #0
 8002d40:	d00d      	beq.n	8002d5e <__format+0x34e>
 8002d42:	06fa      	lsls	r2, r7, #27
 8002d44:	d50b      	bpl.n	8002d5e <__format+0x34e>
 8002d46:	481d      	ldr	r0, [pc, #116]	; (8002dbc <__format+0x3ac>)
 8002d48:	2102      	movs	r1, #2
 8002d4a:	e006      	b.n	8002d5a <__format+0x34a>
 8002d4c:	f1bb 0f00 	cmp.w	fp, #0
 8002d50:	d005      	beq.n	8002d5e <__format+0x34e>
 8002d52:	06fb      	lsls	r3, r7, #27
 8002d54:	d503      	bpl.n	8002d5e <__format+0x34e>
 8002d56:	481a      	ldr	r0, [pc, #104]	; (8002dc0 <__format+0x3b0>)
 8002d58:	2101      	movs	r1, #1
 8002d5a:	464a      	mov	r2, r9
 8002d5c:	47c0      	blx	r8
 8002d5e:	45b3      	cmp	fp, r6
 8002d60:	d205      	bcs.n	8002d6e <__format+0x35e>
 8002d62:	ebcb 0006 	rsb	r0, fp, r6
 8002d66:	4641      	mov	r1, r8
 8002d68:	464a      	mov	r2, r9
 8002d6a:	f7ff fdcf 	bl	800290c <pad_zeroes>
 8002d6e:	4659      	mov	r1, fp
 8002d70:	a807      	add	r0, sp, #28
 8002d72:	464a      	mov	r2, r9
 8002d74:	47c0      	blx	r8
 8002d76:	9b05      	ldr	r3, [sp, #20]
 8002d78:	b14b      	cbz	r3, 8002d8e <__format+0x37e>
 8002d7a:	9b02      	ldr	r3, [sp, #8]
 8002d7c:	4641      	mov	r1, r8
 8002d7e:	1b18      	subs	r0, r3, r4
 8002d80:	464a      	mov	r2, r9
 8002d82:	f7ff fdab 	bl	80028dc <pad_spaces>
 8002d86:	e002      	b.n	8002d8e <__format+0x37e>
 8002d88:	460f      	mov	r7, r1
 8002d8a:	9401      	str	r4, [sp, #4]
 8002d8c:	e000      	b.n	8002d90 <__format+0x380>
 8002d8e:	462f      	mov	r7, r5
 8002d90:	9c01      	ldr	r4, [sp, #4]
 8002d92:	e648      	b.n	8002a26 <__format+0x16>
 8002d94:	42af      	cmp	r7, r5
 8002d96:	d907      	bls.n	8002da8 <__format+0x398>
 8002d98:	eb0a 0005 	add.w	r0, sl, r5
 8002d9c:	1b79      	subs	r1, r7, r5
 8002d9e:	464a      	mov	r2, r9
 8002da0:	47c0      	blx	r8
 8002da2:	e001      	b.n	8002da8 <__format+0x398>
 8002da4:	465f      	mov	r7, fp
 8002da6:	e689      	b.n	8002abc <__format+0xac>
 8002da8:	b00b      	add	sp, #44	; 0x2c
 8002daa:	e8bd 8ff0 	ldmia.w	sp!, {r4, r5, r6, r7, r8, r9, sl, fp, pc}
 8002dae:	bf00      	nop
 8002db0:	08005536 	.word	0x08005536
 8002db4:	08005538 	.word	0x08005538
 8002db8:	08005378 	.word	0x08005378
 8002dbc:	0800553a 	.word	0x0800553a
 8002dc0:	0800553d 	.word	0x0800553d

08002dc4 <sformat>:
 8002dc4:	b507      	push	{r0, r1, r2, lr}
 8002dc6:	ab02      	add	r3, sp, #8
 8002dc8:	f843 0d04 	str.w	r0, [r3, #-4]!
 8002dcc:	4608      	mov	r0, r1
 8002dce:	4611      	mov	r1, r2
 8002dd0:	4a04      	ldr	r2, [pc, #16]	; (8002de4 <sformat+0x20>)
 8002dd2:	f7ff fe1d 	bl	8002a10 <__format>
 8002dd6:	9b01      	ldr	r3, [sp, #4]
 8002dd8:	2200      	movs	r2, #0
 8002dda:	701a      	strb	r2, [r3, #0]
 8002ddc:	b003      	add	sp, #12
 8002dde:	f85d fb04 	ldr.w	pc, [sp], #4
 8002de2:	bf00      	nop
 8002de4:	0800293d 	.word	0x0800293d

08002de8 <pformat>:
 8002de8:	4a01      	ldr	r2, [pc, #4]	; (8002df0 <pformat+0x8>)
 8002dea:	2300      	movs	r3, #0
 8002dec:	f7ff be10 	b.w	8002a10 <__format>
 8002df0:	08002e37 	.word	0x08002e37

08002df4 <stream_write>:
 8002df4:	b570      	push	{r4, r5, r6, lr}
 8002df6:	460d      	mov	r5, r1
 8002df8:	4614      	mov	r4, r2
 8002dfa:	4606      	mov	r6, r0
 8002dfc:	2000      	movs	r0, #0
 8002dfe:	f001 fd3e 	bl	800487e <error>
 8002e02:	4631      	mov	r1, r6
 8002e04:	462a      	mov	r2, r5
 8002e06:	4623      	mov	r3, r4
 8002e08:	201e      	movs	r0, #30
 8002e0a:	f7fd fa41 	bl	8000290 <svc_call>
 8002e0e:	f001 fd31 	bl	8004874 <get_last_error>
 8002e12:	fab0 f080 	clz	r0, r0
 8002e16:	0940      	lsrs	r0, r0, #5
 8002e18:	bd70      	pop	{r4, r5, r6, pc}

08002e1a <__putc>:
 8002e1a:	b507      	push	{r0, r1, r2, lr}
 8002e1c:	a902      	add	r1, sp, #8
 8002e1e:	f801 0d01 	strb.w	r0, [r1, #-1]!
 8002e22:	f04f 5300 	mov.w	r3, #536870912	; 0x20000000
 8002e26:	681b      	ldr	r3, [r3, #0]
 8002e28:	2201      	movs	r2, #1
 8002e2a:	6918      	ldr	r0, [r3, #16]
 8002e2c:	f7ff ffe2 	bl	8002df4 <stream_write>
 8002e30:	b003      	add	sp, #12
 8002e32:	f85d fb04 	ldr.w	pc, [sp], #4

08002e36 <printf_handler>:
 8002e36:	4603      	mov	r3, r0
 8002e38:	460a      	mov	r2, r1
 8002e3a:	f04f 5100 	mov.w	r1, #536870912	; 0x20000000
 8002e3e:	6809      	ldr	r1, [r1, #0]
 8002e40:	6908      	ldr	r0, [r1, #16]
 8002e42:	4619      	mov	r1, r3
 8002e44:	f7ff bfd6 	b.w	8002df4 <stream_write>

08002e48 <__puts>:
 8002e48:	b538      	push	{r3, r4, r5, lr}
 8002e4a:	f04f 5300 	mov.w	r3, #536870912	; 0x20000000
 8002e4e:	681b      	ldr	r3, [r3, #0]
 8002e50:	4604      	mov	r4, r0
 8002e52:	691d      	ldr	r5, [r3, #16]
 8002e54:	f002 f83c 	bl	8004ed0 <strlen>
 8002e58:	4621      	mov	r1, r4
 8002e5a:	4602      	mov	r2, r0
 8002e5c:	4628      	mov	r0, r5
 8002e5e:	e8bd 4038 	ldmia.w	sp!, {r3, r4, r5, lr}
 8002e62:	f7ff bfc7 	b.w	8002df4 <stream_write>

08002e66 <__getc>:
 8002e66:	b513      	push	{r0, r1, r4, lr}
 8002e68:	f04f 5300 	mov.w	r3, #536870912	; 0x20000000
 8002e6c:	681b      	ldr	r3, [r3, #0]
 8002e6e:	2000      	movs	r0, #0
 8002e70:	695c      	ldr	r4, [r3, #20]
 8002e72:	f001 fd04 	bl	800487e <error>
 8002e76:	4621      	mov	r1, r4
 8002e78:	f10d 0207 	add.w	r2, sp, #7
 8002e7c:	2301      	movs	r3, #1
 8002e7e:	201f      	movs	r0, #31
 8002e80:	f7fd fa06 	bl	8000290 <svc_call>
 8002e84:	f001 fcf6 	bl	8004874 <get_last_error>
 8002e88:	f89d 0007 	ldrb.w	r0, [sp, #7]
 8002e8c:	b002      	add	sp, #8
 8002e8e:	bd10      	pop	{r4, pc}

08002e90 <__gets>:
 8002e90:	b570      	push	{r4, r5, r6, lr}
 8002e92:	4605      	mov	r5, r0
 8002e94:	460e      	mov	r6, r1
 8002e96:	4604      	mov	r4, r0
 8002e98:	f7ff ffe5 	bl	8002e66 <__getc>
 8002e9c:	280a      	cmp	r0, #10
 8002e9e:	7020      	strb	r0, [r4, #0]
 8002ea0:	d005      	beq.n	8002eae <__gets+0x1e>
 8002ea2:	1b63      	subs	r3, r4, r5
 8002ea4:	1e72      	subs	r2, r6, #1
 8002ea6:	4293      	cmp	r3, r2
 8002ea8:	da01      	bge.n	8002eae <__gets+0x1e>
 8002eaa:	3401      	adds	r4, #1
 8002eac:	e7f4      	b.n	8002e98 <__gets+0x8>
 8002eae:	2300      	movs	r3, #0
 8002eb0:	7023      	strb	r3, [r4, #0]
 8002eb2:	4628      	mov	r0, r5
 8002eb4:	bd70      	pop	{r4, r5, r6, pc}

08002eb6 <lib_array_create>:
 8002eb6:	b570      	push	{r4, r5, r6, lr}
 8002eb8:	4606      	mov	r6, r0
 8002eba:	fb03 f002 	mul.w	r0, r3, r2
 8002ebe:	461d      	mov	r5, r3
 8002ec0:	300c      	adds	r0, #12
 8002ec2:	680b      	ldr	r3, [r1, #0]
 8002ec4:	4614      	mov	r4, r2
 8002ec6:	4798      	blx	r3
 8002ec8:	6030      	str	r0, [r6, #0]
 8002eca:	b118      	cbz	r0, 8002ed4 <lib_array_create+0x1e>
 8002ecc:	2300      	movs	r3, #0
 8002ece:	6045      	str	r5, [r0, #4]
 8002ed0:	6003      	str	r3, [r0, #0]
 8002ed2:	6084      	str	r4, [r0, #8]
 8002ed4:	bd70      	pop	{r4, r5, r6, pc}

08002ed6 <lib_array_destroy>:
 8002ed6:	b510      	push	{r4, lr}
 8002ed8:	4604      	mov	r4, r0
 8002eda:	688b      	ldr	r3, [r1, #8]
 8002edc:	6800      	ldr	r0, [r0, #0]
 8002ede:	4798      	blx	r3
 8002ee0:	2300      	movs	r3, #0
 8002ee2:	6023      	str	r3, [r4, #0]
 8002ee4:	bd10      	pop	{r4, pc}

08002ee6 <lib_array_size>:
 8002ee6:	b100      	cbz	r0, 8002eea <lib_array_size+0x4>
 8002ee8:	6800      	ldr	r0, [r0, #0]
 8002eea:	4770      	bx	lr

08002eec <lib_array_clear>:
 8002eec:	6800      	ldr	r0, [r0, #0]
 8002eee:	b108      	cbz	r0, 8002ef4 <lib_array_clear+0x8>
 8002ef0:	2300      	movs	r3, #0
 8002ef2:	6003      	str	r3, [r0, #0]
 8002ef4:	4770      	bx	lr

08002ef6 <lib_array_squeeze>:
 8002ef6:	b510      	push	{r4, lr}
 8002ef8:	4604      	mov	r4, r0
 8002efa:	6800      	ldr	r0, [r0, #0]
 8002efc:	b148      	cbz	r0, 8002f12 <lib_array_squeeze+0x1c>
 8002efe:	6882      	ldr	r2, [r0, #8]
 8002f00:	6803      	ldr	r3, [r0, #0]
 8002f02:	4353      	muls	r3, r2
 8002f04:	684a      	ldr	r2, [r1, #4]
 8002f06:	f103 010c 	add.w	r1, r3, #12
 8002f0a:	4790      	blx	r2
 8002f0c:	6803      	ldr	r3, [r0, #0]
 8002f0e:	6020      	str	r0, [r4, #0]
 8002f10:	6043      	str	r3, [r0, #4]
 8002f12:	bd10      	pop	{r4, pc}

08002f14 <lib_array_at>:
 8002f14:	b508      	push	{r3, lr}
 8002f16:	b160      	cbz	r0, 8002f32 <lib_array_at+0x1e>
 8002f18:	6803      	ldr	r3, [r0, #0]
 8002f1a:	429a      	cmp	r2, r3
 8002f1c:	d305      	bcc.n	8002f2a <lib_array_at+0x16>
 8002f1e:	f06f 000b 	mvn.w	r0, #11
 8002f22:	f001 fcac 	bl	800487e <error>
 8002f26:	2000      	movs	r0, #0
 8002f28:	bd08      	pop	{r3, pc}
 8002f2a:	6883      	ldr	r3, [r0, #8]
 8002f2c:	fb03 0002 	mla	r0, r3, r2, r0
 8002f30:	300c      	adds	r0, #12
 8002f32:	bd08      	pop	{r3, pc}

08002f34 <lib_array_append>:
 8002f34:	b538      	push	{r3, r4, r5, lr}
 8002f36:	4604      	mov	r4, r0
 8002f38:	6800      	ldr	r0, [r0, #0]
 8002f3a:	460d      	mov	r5, r1
 8002f3c:	b1c8      	cbz	r0, 8002f72 <lib_array_append+0x3e>
 8002f3e:	e890 000c 	ldmia.w	r0, {r2, r3}
 8002f42:	4293      	cmp	r3, r2
 8002f44:	f102 0201 	add.w	r2, r2, #1
 8002f48:	d901      	bls.n	8002f4e <lib_array_append+0x1a>
 8002f4a:	6002      	str	r2, [r0, #0]
 8002f4c:	e009      	b.n	8002f62 <lib_array_append+0x2e>
 8002f4e:	6881      	ldr	r1, [r0, #8]
 8002f50:	3301      	adds	r3, #1
 8002f52:	4359      	muls	r1, r3
 8002f54:	e880 000c 	stmia.w	r0, {r2, r3}
 8002f58:	310c      	adds	r1, #12
 8002f5a:	686b      	ldr	r3, [r5, #4]
 8002f5c:	4798      	blx	r3
 8002f5e:	b140      	cbz	r0, 8002f72 <lib_array_append+0x3e>
 8002f60:	6020      	str	r0, [r4, #0]
 8002f62:	6820      	ldr	r0, [r4, #0]
 8002f64:	4629      	mov	r1, r5
 8002f66:	e8bd 4038 	ldmia.w	sp!, {r3, r4, r5, lr}
 8002f6a:	6802      	ldr	r2, [r0, #0]
 8002f6c:	3a01      	subs	r2, #1
 8002f6e:	f7ff bfd1 	b.w	8002f14 <lib_array_at>
 8002f72:	2000      	movs	r0, #0
 8002f74:	bd38      	pop	{r3, r4, r5, pc}
 8002f76:	0000      	movs	r0, r0

08002f78 <lib_array_insert>:
 8002f78:	b5f8      	push	{r3, r4, r5, r6, r7, lr}
 8002f7a:	f04f 5300 	mov.w	r3, #536870912	; 0x20000000
 8002f7e:	689b      	ldr	r3, [r3, #8]
 8002f80:	460e      	mov	r6, r1
 8002f82:	68db      	ldr	r3, [r3, #12]
 8002f84:	4912      	ldr	r1, [pc, #72]	; (8002fd0 <lib_array_insert+0x58>)
 8002f86:	691b      	ldr	r3, [r3, #16]
 8002f88:	4605      	mov	r5, r0
 8002f8a:	4617      	mov	r7, r2
 8002f8c:	4798      	blx	r3
 8002f8e:	b1f0      	cbz	r0, 8002fce <lib_array_insert+0x56>
 8002f90:	6829      	ldr	r1, [r5, #0]
 8002f92:	680b      	ldr	r3, [r1, #0]
 8002f94:	429f      	cmp	r7, r3
 8002f96:	d305      	bcc.n	8002fa4 <lib_array_insert+0x2c>
 8002f98:	f06f 000b 	mvn.w	r0, #11
 8002f9c:	f001 fc6f 	bl	800487e <error>
 8002fa0:	6828      	ldr	r0, [r5, #0]
 8002fa2:	bdf8      	pop	{r3, r4, r5, r6, r7, pc}
 8002fa4:	688a      	ldr	r2, [r1, #8]
 8002fa6:	3b01      	subs	r3, #1
 8002fa8:	fb07 2402 	mla	r4, r7, r2, r2
 8002fac:	f104 000c 	add.w	r0, r4, #12
 8002fb0:	1aa4      	subs	r4, r4, r2
 8002fb2:	1bdb      	subs	r3, r3, r7
 8002fb4:	340c      	adds	r4, #12
 8002fb6:	435a      	muls	r2, r3
 8002fb8:	4408      	add	r0, r1
 8002fba:	4421      	add	r1, r4
 8002fbc:	f001 fe78 	bl	8004cb0 <memmove>
 8002fc0:	6828      	ldr	r0, [r5, #0]
 8002fc2:	4631      	mov	r1, r6
 8002fc4:	463a      	mov	r2, r7
 8002fc6:	e8bd 40f8 	ldmia.w	sp!, {r3, r4, r5, r6, r7, lr}
 8002fca:	f7ff bfa3 	b.w	8002f14 <lib_array_at>
 8002fce:	bdf8      	pop	{r3, r4, r5, r6, r7, pc}
 8002fd0:	08005778 	.word	0x08005778

08002fd4 <lib_array_remove>:
 8002fd4:	6803      	ldr	r3, [r0, #0]
 8002fd6:	b570      	push	{r4, r5, r6, lr}
 8002fd8:	4605      	mov	r5, r0
 8002fda:	b1d3      	cbz	r3, 8003012 <lib_array_remove+0x3e>
 8002fdc:	681c      	ldr	r4, [r3, #0]
 8002fde:	42a2      	cmp	r2, r4
 8002fe0:	d305      	bcc.n	8002fee <lib_array_remove+0x1a>
 8002fe2:	f06f 000b 	mvn.w	r0, #11
 8002fe6:	f001 fc4a 	bl	800487e <error>
 8002fea:	682b      	ldr	r3, [r5, #0]
 8002fec:	e011      	b.n	8003012 <lib_array_remove+0x3e>
 8002fee:	689e      	ldr	r6, [r3, #8]
 8002ff0:	3c01      	subs	r4, #1
 8002ff2:	fb06 f102 	mul.w	r1, r6, r2
 8002ff6:	f101 000c 	add.w	r0, r1, #12
 8002ffa:	4431      	add	r1, r6
 8002ffc:	310c      	adds	r1, #12
 8002ffe:	1aa2      	subs	r2, r4, r2
 8003000:	4418      	add	r0, r3
 8003002:	4419      	add	r1, r3
 8003004:	4372      	muls	r2, r6
 8003006:	f001 fe53 	bl	8004cb0 <memmove>
 800300a:	682b      	ldr	r3, [r5, #0]
 800300c:	681a      	ldr	r2, [r3, #0]
 800300e:	3a01      	subs	r2, #1
 8003010:	601a      	str	r2, [r3, #0]
 8003012:	4618      	mov	r0, r3
 8003014:	bd70      	pop	{r4, r5, r6, pc}

08003016 <lib_so_create>:
 8003016:	b510      	push	{r4, lr}
 8003018:	3204      	adds	r2, #4
 800301a:	4604      	mov	r4, r0
 800301c:	f7ff ff4b 	bl	8002eb6 <lib_array_create>
 8003020:	b118      	cbz	r0, 800302a <lib_so_create+0x14>
 8003022:	4620      	mov	r0, r4
 8003024:	f06f 437f 	mvn.w	r3, #4278190080	; 0xff000000
 8003028:	6063      	str	r3, [r4, #4]
 800302a:	bd10      	pop	{r4, pc}

0800302c <lib_so_destroy>:
 800302c:	f7ff bf53 	b.w	8002ed6 <lib_array_destroy>

08003030 <lib_so_first>:
 8003030:	b570      	push	{r4, r5, r6, lr}
 8003032:	4606      	mov	r6, r0
 8003034:	460d      	mov	r5, r1
 8003036:	2400      	movs	r4, #0
 8003038:	6830      	ldr	r0, [r6, #0]
 800303a:	4629      	mov	r1, r5
 800303c:	f7ff ff53 	bl	8002ee6 <lib_array_size>
 8003040:	4284      	cmp	r4, r0
 8003042:	d213      	bcs.n	800306c <lib_so_first+0x3c>
 8003044:	4622      	mov	r2, r4
 8003046:	6830      	ldr	r0, [r6, #0]
 8003048:	4629      	mov	r1, r5
 800304a:	f7ff ff63 	bl	8002f14 <lib_array_at>
 800304e:	6802      	ldr	r2, [r0, #0]
 8003050:	f06f 437f 	mvn.w	r3, #4278190080	; 0xff000000
 8003054:	ebb3 2f12 	cmp.w	r3, r2, lsr #8
 8003058:	d006      	beq.n	8003068 <lib_so_first+0x38>
 800305a:	6830      	ldr	r0, [r6, #0]
 800305c:	4629      	mov	r1, r5
 800305e:	4622      	mov	r2, r4
 8003060:	f7ff ff58 	bl	8002f14 <lib_array_at>
 8003064:	6800      	ldr	r0, [r0, #0]
 8003066:	bd70      	pop	{r4, r5, r6, pc}
 8003068:	3401      	adds	r4, #1
 800306a:	e7e5      	b.n	8003038 <lib_so_first+0x8>
 800306c:	f04f 30ff 	mov.w	r0, #4294967295
 8003070:	bd70      	pop	{r4, r5, r6, pc}

08003072 <lib_so_next>:
 8003072:	b570      	push	{r4, r5, r6, lr}
 8003074:	4606      	mov	r6, r0
 8003076:	460d      	mov	r5, r1
 8003078:	0a12      	lsrs	r2, r2, #8
 800307a:	1c54      	adds	r4, r2, #1
 800307c:	6830      	ldr	r0, [r6, #0]
 800307e:	4629      	mov	r1, r5
 8003080:	f7ff ff31 	bl	8002ee6 <lib_array_size>
 8003084:	4284      	cmp	r4, r0
 8003086:	d213      	bcs.n	80030b0 <lib_so_next+0x3e>
 8003088:	4622      	mov	r2, r4
 800308a:	6830      	ldr	r0, [r6, #0]
 800308c:	4629      	mov	r1, r5
 800308e:	f7ff ff41 	bl	8002f14 <lib_array_at>
 8003092:	6802      	ldr	r2, [r0, #0]
 8003094:	f06f 437f 	mvn.w	r3, #4278190080	; 0xff000000
 8003098:	ebb3 2f12 	cmp.w	r3, r2, lsr #8
 800309c:	d006      	beq.n	80030ac <lib_so_next+0x3a>
 800309e:	6830      	ldr	r0, [r6, #0]
 80030a0:	4629      	mov	r1, r5
 80030a2:	4622      	mov	r2, r4
 80030a4:	f7ff ff36 	bl	8002f14 <lib_array_at>
 80030a8:	6800      	ldr	r0, [r0, #0]
 80030aa:	bd70      	pop	{r4, r5, r6, pc}
 80030ac:	3401      	adds	r4, #1
 80030ae:	e7e5      	b.n	800307c <lib_so_next+0xa>
 80030b0:	f04f 30ff 	mov.w	r0, #4294967295
 80030b4:	bd70      	pop	{r4, r5, r6, pc}

080030b6 <lib_so_count>:
 80030b6:	b570      	push	{r4, r5, r6, lr}
 80030b8:	4605      	mov	r5, r0
 80030ba:	6800      	ldr	r0, [r0, #0]
 80030bc:	460e      	mov	r6, r1
 80030be:	f7ff ff12 	bl	8002ee6 <lib_array_size>
 80030c2:	4604      	mov	r4, r0
 80030c4:	686a      	ldr	r2, [r5, #4]
 80030c6:	f06f 437f 	mvn.w	r3, #4278190080	; 0xff000000
 80030ca:	429a      	cmp	r2, r3
 80030cc:	d007      	beq.n	80030de <lib_so_count+0x28>
 80030ce:	6828      	ldr	r0, [r5, #0]
 80030d0:	4631      	mov	r1, r6
 80030d2:	f7ff ff1f 	bl	8002f14 <lib_array_at>
 80030d6:	6802      	ldr	r2, [r0, #0]
 80030d8:	3c01      	subs	r4, #1
 80030da:	0a12      	lsrs	r2, r2, #8
 80030dc:	e7f3      	b.n	80030c6 <lib_so_count+0x10>
 80030de:	4620      	mov	r0, r4
 80030e0:	bd70      	pop	{r4, r5, r6, pc}

080030e2 <lib_so_check_handle>:
 80030e2:	b5f8      	push	{r3, r4, r5, r6, r7, lr}
 80030e4:	4605      	mov	r5, r0
 80030e6:	6800      	ldr	r0, [r0, #0]
 80030e8:	0a14      	lsrs	r4, r2, #8
 80030ea:	460f      	mov	r7, r1
 80030ec:	4616      	mov	r6, r2
 80030ee:	f7ff fefa 	bl	8002ee6 <lib_array_size>
 80030f2:	4284      	cmp	r4, r0
 80030f4:	d302      	bcc.n	80030fc <lib_so_check_handle+0x1a>
 80030f6:	f06f 000b 	mvn.w	r0, #11
 80030fa:	e019      	b.n	8003130 <lib_so_check_handle+0x4e>
 80030fc:	4622      	mov	r2, r4
 80030fe:	6828      	ldr	r0, [r5, #0]
 8003100:	4639      	mov	r1, r7
 8003102:	f7ff ff07 	bl	8002f14 <lib_array_at>
 8003106:	6802      	ldr	r2, [r0, #0]
 8003108:	f06f 437f 	mvn.w	r3, #4278190080	; 0xff000000
 800310c:	ebb3 2f12 	cmp.w	r3, r2, lsr #8
 8003110:	d102      	bne.n	8003118 <lib_so_check_handle+0x36>
 8003112:	f06f 0004 	mvn.w	r0, #4
 8003116:	e00b      	b.n	8003130 <lib_so_check_handle+0x4e>
 8003118:	4622      	mov	r2, r4
 800311a:	6828      	ldr	r0, [r5, #0]
 800311c:	4639      	mov	r1, r7
 800311e:	f7ff fef9 	bl	8002f14 <lib_array_at>
 8003122:	6802      	ldr	r2, [r0, #0]
 8003124:	4072      	eors	r2, r6
 8003126:	f012 0fff 	tst.w	r2, #255	; 0xff
 800312a:	d005      	beq.n	8003138 <lib_so_check_handle+0x56>
 800312c:	f06f 0007 	mvn.w	r0, #7
 8003130:	f001 fba5 	bl	800487e <error>
 8003134:	2000      	movs	r0, #0
 8003136:	bdf8      	pop	{r3, r4, r5, r6, r7, pc}
 8003138:	2001      	movs	r0, #1
 800313a:	bdf8      	pop	{r3, r4, r5, r6, r7, pc}

0800313c <lib_so_get>:
 800313c:	b570      	push	{r4, r5, r6, lr}
 800313e:	4606      	mov	r6, r0
 8003140:	460d      	mov	r5, r1
 8003142:	4614      	mov	r4, r2
 8003144:	f7ff ffcd 	bl	80030e2 <lib_so_check_handle>
 8003148:	b128      	cbz	r0, 8003156 <lib_so_get+0x1a>
 800314a:	6830      	ldr	r0, [r6, #0]
 800314c:	4629      	mov	r1, r5
 800314e:	0a22      	lsrs	r2, r4, #8
 8003150:	f7ff fee0 	bl	8002f14 <lib_array_at>
 8003154:	3004      	adds	r0, #4
 8003156:	bd70      	pop	{r4, r5, r6, pc}

08003158 <lib_so_allocate>:
 8003158:	b5f8      	push	{r3, r4, r5, r6, r7, lr}
 800315a:	6844      	ldr	r4, [r0, #4]
 800315c:	f06f 437f 	mvn.w	r3, #4278190080	; 0xff000000
 8003160:	429c      	cmp	r4, r3
 8003162:	4605      	mov	r5, r0
 8003164:	460e      	mov	r6, r1
 8003166:	d115      	bne.n	8003194 <lib_so_allocate+0x3c>
 8003168:	f7ff fee4 	bl	8002f34 <lib_array_append>
 800316c:	b338      	cbz	r0, 80031be <lib_so_allocate+0x66>
 800316e:	682c      	ldr	r4, [r5, #0]
 8003170:	4631      	mov	r1, r6
 8003172:	4620      	mov	r0, r4
 8003174:	f7ff feb7 	bl	8002ee6 <lib_array_size>
 8003178:	4631      	mov	r1, r6
 800317a:	1e42      	subs	r2, r0, #1
 800317c:	4620      	mov	r0, r4
 800317e:	f7ff fec9 	bl	8002f14 <lib_array_at>
 8003182:	4631      	mov	r1, r6
 8003184:	4607      	mov	r7, r0
 8003186:	6828      	ldr	r0, [r5, #0]
 8003188:	f7ff fead 	bl	8002ee6 <lib_array_size>
 800318c:	3801      	subs	r0, #1
 800318e:	0204      	lsls	r4, r0, #8
 8003190:	603c      	str	r4, [r7, #0]
 8003192:	e016      	b.n	80031c2 <lib_so_allocate+0x6a>
 8003194:	4622      	mov	r2, r4
 8003196:	6800      	ldr	r0, [r0, #0]
 8003198:	f7ff febc 	bl	8002f14 <lib_array_at>
 800319c:	7800      	ldrb	r0, [r0, #0]
 800319e:	4631      	mov	r1, r6
 80031a0:	ea40 2404 	orr.w	r4, r0, r4, lsl #8
 80031a4:	686a      	ldr	r2, [r5, #4]
 80031a6:	6828      	ldr	r0, [r5, #0]
 80031a8:	f7ff feb4 	bl	8002f14 <lib_array_at>
 80031ac:	6004      	str	r4, [r0, #0]
 80031ae:	4631      	mov	r1, r6
 80031b0:	6828      	ldr	r0, [r5, #0]
 80031b2:	686a      	ldr	r2, [r5, #4]
 80031b4:	f7ff feae 	bl	8002f14 <lib_array_at>
 80031b8:	6843      	ldr	r3, [r0, #4]
 80031ba:	606b      	str	r3, [r5, #4]
 80031bc:	e001      	b.n	80031c2 <lib_so_allocate+0x6a>
 80031be:	f04f 34ff 	mov.w	r4, #4294967295
 80031c2:	4620      	mov	r0, r4
 80031c4:	bdf8      	pop	{r3, r4, r5, r6, r7, pc}

080031c6 <lib_so_free>:
 80031c6:	b5f8      	push	{r3, r4, r5, r6, r7, lr}
 80031c8:	4605      	mov	r5, r0
 80031ca:	460f      	mov	r7, r1
 80031cc:	4614      	mov	r4, r2
 80031ce:	f7ff ff88 	bl	80030e2 <lib_so_check_handle>
 80031d2:	b188      	cbz	r0, 80031f8 <lib_so_free+0x32>
 80031d4:	0a26      	lsrs	r6, r4, #8
 80031d6:	4639      	mov	r1, r7
 80031d8:	4632      	mov	r2, r6
 80031da:	6828      	ldr	r0, [r5, #0]
 80031dc:	f7ff fe9a 	bl	8002f14 <lib_array_at>
 80031e0:	686b      	ldr	r3, [r5, #4]
 80031e2:	4639      	mov	r1, r7
 80031e4:	6043      	str	r3, [r0, #4]
 80031e6:	4632      	mov	r2, r6
 80031e8:	606e      	str	r6, [r5, #4]
 80031ea:	6828      	ldr	r0, [r5, #0]
 80031ec:	f7ff fe92 	bl	8002f14 <lib_array_at>
 80031f0:	3401      	adds	r4, #1
 80031f2:	f064 04ff 	orn	r4, r4, #255	; 0xff
 80031f6:	6004      	str	r4, [r0, #0]
 80031f8:	bdf8      	pop	{r3, r4, r5, r6, r7, pc}
 80031fa:	0000      	movs	r0, r0

080031fc <stm32_gpio_enable_pin>:
 80031fc:	b5f0      	push	{r4, r5, r6, r7, lr}
 80031fe:	090c      	lsrs	r4, r1, #4
 8003200:	f850 5024 	ldr.w	r5, [r0, r4, lsl #2]
 8003204:	1d2e      	adds	r6, r5, #4
 8003206:	f840 6024 	str.w	r6, [r0, r4, lsl #2]
 800320a:	b945      	cbnz	r5, 800321e <stm32_gpio_enable_pin+0x22>
 800320c:	4813      	ldr	r0, [pc, #76]	; (800325c <stm32_gpio_enable_pin+0x60>)
 800320e:	4e14      	ldr	r6, [pc, #80]	; (8003260 <stm32_gpio_enable_pin+0x64>)
 8003210:	f850 7024 	ldr.w	r7, [r0, r4, lsl #2]
 8003214:	69b5      	ldr	r5, [r6, #24]
 8003216:	2001      	movs	r0, #1
 8003218:	40b8      	lsls	r0, r7
 800321a:	4328      	orrs	r0, r5
 800321c:	61b0      	str	r0, [r6, #24]
 800321e:	4811      	ldr	r0, [pc, #68]	; (8003264 <stm32_gpio_enable_pin+0x68>)
 8003220:	f001 050f 	and.w	r5, r1, #15
 8003224:	f850 0024 	ldr.w	r0, [r0, r4, lsl #2]
 8003228:	f001 0107 	and.w	r1, r1, #7
 800322c:	0089      	lsls	r1, r1, #2
 800322e:	10ef      	asrs	r7, r5, #3
 8003230:	240f      	movs	r4, #15
 8003232:	fa04 f601 	lsl.w	r6, r4, r1
 8003236:	f850 4027 	ldr.w	r4, [r0, r7, lsl #2]
 800323a:	408a      	lsls	r2, r1
 800323c:	ea24 0406 	bic.w	r4, r4, r6
 8003240:	4322      	orrs	r2, r4
 8003242:	68c1      	ldr	r1, [r0, #12]
 8003244:	f840 2027 	str.w	r2, [r0, r7, lsl #2]
 8003248:	2201      	movs	r2, #1
 800324a:	40aa      	lsls	r2, r5
 800324c:	ea21 0202 	bic.w	r2, r1, r2
 8003250:	60c2      	str	r2, [r0, #12]
 8003252:	68c2      	ldr	r2, [r0, #12]
 8003254:	40ab      	lsls	r3, r5
 8003256:	4313      	orrs	r3, r2
 8003258:	60c3      	str	r3, [r0, #12]
 800325a:	bdf0      	pop	{r4, r5, r6, r7, pc}
 800325c:	080055dc 	.word	0x080055dc
 8003260:	40021000 	.word	0x40021000
 8003264:	080055f8 	.word	0x080055f8

08003268 <stm32_gpio_enable_exti>:
 8003268:	b570      	push	{r4, r5, r6, lr}
 800326a:	f001 050f 	and.w	r5, r1, #15
 800326e:	f005 030c 	and.w	r3, r5, #12
 8003272:	f103 4380 	add.w	r3, r3, #1073741824	; 0x40000000
 8003276:	f503 3380 	add.w	r3, r3, #65536	; 0x10000
 800327a:	689c      	ldr	r4, [r3, #8]
 800327c:	f001 0603 	and.w	r6, r1, #3
 8003280:	200f      	movs	r0, #15
 8003282:	40b0      	lsls	r0, r6
 8003284:	ea24 0000 	bic.w	r0, r4, r0
 8003288:	6098      	str	r0, [r3, #8]
 800328a:	6898      	ldr	r0, [r3, #8]
 800328c:	0909      	lsrs	r1, r1, #4
 800328e:	40b1      	lsls	r1, r6
 8003290:	4301      	orrs	r1, r0
 8003292:	6099      	str	r1, [r3, #8]
 8003294:	2101      	movs	r1, #1
 8003296:	40a9      	lsls	r1, r5
 8003298:	43cd      	mvns	r5, r1
 800329a:	4b0c      	ldr	r3, [pc, #48]	; (80032cc <stm32_gpio_enable_exti+0x64>)
 800329c:	689c      	ldr	r4, [r3, #8]
 800329e:	402c      	ands	r4, r5
 80032a0:	609c      	str	r4, [r3, #8]
 80032a2:	68d8      	ldr	r0, [r3, #12]
 80032a4:	4028      	ands	r0, r5
 80032a6:	60d8      	str	r0, [r3, #12]
 80032a8:	07d0      	lsls	r0, r2, #31
 80032aa:	bf42      	ittt	mi
 80032ac:	6898      	ldrmi	r0, [r3, #8]
 80032ae:	4308      	orrmi	r0, r1
 80032b0:	6098      	strmi	r0, [r3, #8]
 80032b2:	0792      	lsls	r2, r2, #30
 80032b4:	bf42      	ittt	mi
 80032b6:	68da      	ldrmi	r2, [r3, #12]
 80032b8:	430a      	orrmi	r2, r1
 80032ba:	60da      	strmi	r2, [r3, #12]
 80032bc:	681a      	ldr	r2, [r3, #0]
 80032be:	430a      	orrs	r2, r1
 80032c0:	601a      	str	r2, [r3, #0]
 80032c2:	685a      	ldr	r2, [r3, #4]
 80032c4:	4311      	orrs	r1, r2
 80032c6:	6059      	str	r1, [r3, #4]
 80032c8:	bd70      	pop	{r4, r5, r6, pc}
 80032ca:	bf00      	nop
 80032cc:	40010400 	.word	0x40010400

080032d0 <stm32_gpio_disable_pin>:
 80032d0:	4b12      	ldr	r3, [pc, #72]	; (800331c <stm32_gpio_disable_pin+0x4c>)
 80032d2:	090a      	lsrs	r2, r1, #4
 80032d4:	b570      	push	{r4, r5, r6, lr}
 80032d6:	f853 5022 	ldr.w	r5, [r3, r2, lsl #2]
 80032da:	f3c1 06c0 	ubfx	r6, r1, #3, #1
 80032de:	f001 0107 	and.w	r1, r1, #7
 80032e2:	f855 3026 	ldr.w	r3, [r5, r6, lsl #2]
 80032e6:	0089      	lsls	r1, r1, #2
 80032e8:	240f      	movs	r4, #15
 80032ea:	408c      	lsls	r4, r1
 80032ec:	ea23 0404 	bic.w	r4, r3, r4
 80032f0:	2301      	movs	r3, #1
 80032f2:	fa03 f101 	lsl.w	r1, r3, r1
 80032f6:	4321      	orrs	r1, r4
 80032f8:	f845 1026 	str.w	r1, [r5, r6, lsl #2]
 80032fc:	f850 1022 	ldr.w	r1, [r0, r2, lsl #2]
 8003300:	3904      	subs	r1, #4
 8003302:	f840 1022 	str.w	r1, [r0, r2, lsl #2]
 8003306:	b941      	cbnz	r1, 800331a <stm32_gpio_disable_pin+0x4a>
 8003308:	4c05      	ldr	r4, [pc, #20]	; (8003320 <stm32_gpio_disable_pin+0x50>)
 800330a:	4806      	ldr	r0, [pc, #24]	; (8003324 <stm32_gpio_disable_pin+0x54>)
 800330c:	f854 2022 	ldr.w	r2, [r4, r2, lsl #2]
 8003310:	6981      	ldr	r1, [r0, #24]
 8003312:	4093      	lsls	r3, r2
 8003314:	ea21 0303 	bic.w	r3, r1, r3
 8003318:	6183      	str	r3, [r0, #24]
 800331a:	bd70      	pop	{r4, r5, r6, pc}
 800331c:	080055f8 	.word	0x080055f8
 8003320:	080055dc 	.word	0x080055dc
 8003324:	40021000 	.word	0x40021000

08003328 <stm32_gpio_disable_exti>:
 8003328:	f001 010f 	and.w	r1, r1, #15
 800332c:	2201      	movs	r2, #1
 800332e:	408a      	lsls	r2, r1
 8003330:	43d2      	mvns	r2, r2
 8003332:	4b07      	ldr	r3, [pc, #28]	; (8003350 <stm32_gpio_disable_exti+0x28>)
 8003334:	6818      	ldr	r0, [r3, #0]
 8003336:	4010      	ands	r0, r2
 8003338:	6018      	str	r0, [r3, #0]
 800333a:	6859      	ldr	r1, [r3, #4]
 800333c:	4011      	ands	r1, r2
 800333e:	6059      	str	r1, [r3, #4]
 8003340:	6899      	ldr	r1, [r3, #8]
 8003342:	4011      	ands	r1, r2
 8003344:	6099      	str	r1, [r3, #8]
 8003346:	68d9      	ldr	r1, [r3, #12]
 8003348:	400a      	ands	r2, r1
 800334a:	60da      	str	r2, [r3, #12]
 800334c:	4770      	bx	lr
 800334e:	bf00      	nop
 8003350:	40010400 	.word	0x40010400

08003354 <stm32_pin_init>:
 8003354:	2100      	movs	r1, #0
 8003356:	2220      	movs	r2, #32
 8003358:	f001 bd0e 	b.w	8004d78 <memset>

0800335c <stm32_pin_request>:
 800335c:	684b      	ldr	r3, [r1, #4]
 800335e:	460a      	mov	r2, r1
 8003360:	f3c3 030e 	ubfx	r3, r3, #0, #15
 8003364:	f5a3 7380 	sub.w	r3, r3, #256	; 0x100
 8003368:	2b03      	cmp	r3, #3
 800336a:	d815      	bhi.n	8003398 <stm32_pin_request+0x3c>
 800336c:	e8df f003 	tbb	[pc, r3]
 8003370:	110d0205 	.word	0x110d0205
 8003374:	7a11      	ldrb	r1, [r2, #8]
 8003376:	f7ff bfab 	b.w	80032d0 <stm32_gpio_disable_pin>
 800337a:	6913      	ldr	r3, [r2, #16]
 800337c:	7a11      	ldrb	r1, [r2, #8]
 800337e:	3300      	adds	r3, #0
 8003380:	7b12      	ldrb	r2, [r2, #12]
 8003382:	bf18      	it	ne
 8003384:	2301      	movne	r3, #1
 8003386:	f7ff bf39 	b.w	80031fc <stm32_gpio_enable_pin>
 800338a:	7a11      	ldrb	r1, [r2, #8]
 800338c:	68d2      	ldr	r2, [r2, #12]
 800338e:	f7ff bf6b 	b.w	8003268 <stm32_gpio_enable_exti>
 8003392:	7a11      	ldrb	r1, [r2, #8]
 8003394:	f7ff bfc8 	b.w	8003328 <stm32_gpio_disable_exti>
 8003398:	f06f 0001 	mvn.w	r0, #1
 800339c:	f001 ba6f 	b.w	800487e <error>

080033a0 <object_get.constprop.0>:
 80033a0:	b507      	push	{r0, r1, r2, lr}
 80033a2:	f04f 33ff 	mov.w	r3, #4294967295
 80033a6:	aa02      	add	r2, sp, #8
 80033a8:	f842 3d04 	str.w	r3, [r2, #-4]!
 80033ac:	202f      	movs	r0, #47	; 0x2f
 80033ae:	2101      	movs	r1, #1
 80033b0:	2300      	movs	r3, #0
 80033b2:	f7fc ff6d 	bl	8000290 <svc_call>
 80033b6:	9801      	ldr	r0, [sp, #4]
 80033b8:	b003      	add	sp, #12
 80033ba:	f85d fb04 	ldr.w	pc, [sp], #4
 80033be:	0000      	movs	r0, r0

080033c0 <gpio_enable_pin>:
 80033c0:	b513      	push	{r0, r1, r4, lr}
 80033c2:	4604      	mov	r4, r0
 80033c4:	2903      	cmp	r1, #3
 80033c6:	d820      	bhi.n	800340a <gpio_enable_pin+0x4a>
 80033c8:	e8df f001 	tbb	[pc, r1]
 80033cc:	16120a02 	.word	0x16120a02
 80033d0:	f7ff ffe6 	bl	80033a0 <object_get.constprop.0>
 80033d4:	2300      	movs	r3, #0
 80033d6:	9300      	str	r3, [sp, #0]
 80033d8:	490d      	ldr	r1, [pc, #52]	; (8003410 <gpio_enable_pin+0x50>)
 80033da:	4622      	mov	r2, r4
 80033dc:	2303      	movs	r3, #3
 80033de:	e012      	b.n	8003406 <gpio_enable_pin+0x46>
 80033e0:	f7ff ffde 	bl	80033a0 <object_get.constprop.0>
 80033e4:	2300      	movs	r3, #0
 80033e6:	9300      	str	r3, [sp, #0]
 80033e8:	4909      	ldr	r1, [pc, #36]	; (8003410 <gpio_enable_pin+0x50>)
 80033ea:	4622      	mov	r2, r4
 80033ec:	2304      	movs	r3, #4
 80033ee:	e00a      	b.n	8003406 <gpio_enable_pin+0x46>
 80033f0:	f7ff ffd6 	bl	80033a0 <object_get.constprop.0>
 80033f4:	2301      	movs	r3, #1
 80033f6:	e002      	b.n	80033fe <gpio_enable_pin+0x3e>
 80033f8:	f7ff ffd2 	bl	80033a0 <object_get.constprop.0>
 80033fc:	2300      	movs	r3, #0
 80033fe:	4622      	mov	r2, r4
 8003400:	4903      	ldr	r1, [pc, #12]	; (8003410 <gpio_enable_pin+0x50>)
 8003402:	9300      	str	r3, [sp, #0]
 8003404:	2308      	movs	r3, #8
 8003406:	f001 f9fe 	bl	8004806 <ack>
 800340a:	b002      	add	sp, #8
 800340c:	bd10      	pop	{r4, pc}
 800340e:	bf00      	nop
 8003410:	80010100 	.word	0x80010100

08003414 <gpio_reset_pin>:
 8003414:	4b04      	ldr	r3, [pc, #16]	; (8003428 <gpio_reset_pin+0x14>)
 8003416:	0902      	lsrs	r2, r0, #4
 8003418:	f853 2022 	ldr.w	r2, [r3, r2, lsl #2]
 800341c:	f000 000f 	and.w	r0, r0, #15
 8003420:	2301      	movs	r3, #1
 8003422:	4083      	lsls	r3, r0
 8003424:	6153      	str	r3, [r2, #20]
 8003426:	4770      	bx	lr
 8003428:	080055f8 	.word	0x080055f8

0800342c <get_pll_clock>:
 800342c:	4b09      	ldr	r3, [pc, #36]	; (8003454 <get_pll_clock+0x28>)
 800342e:	685a      	ldr	r2, [r3, #4]
 8003430:	03d2      	lsls	r2, r2, #15
 8003432:	bf41      	itttt	mi
 8003434:	6ada      	ldrmi	r2, [r3, #44]	; 0x2c
 8003436:	4808      	ldrmi	r0, [pc, #32]	; (8003458 <get_pll_clock+0x2c>)
 8003438:	f002 020f 	andmi.w	r2, r2, #15
 800343c:	3201      	addmi	r2, #1
 800343e:	bf48      	it	mi
 8003440:	fbb0 f0f2 	udivmi	r0, r0, r2
 8003444:	685b      	ldr	r3, [r3, #4]
 8003446:	bf58      	it	pl
 8003448:	4804      	ldrpl	r0, [pc, #16]	; (800345c <get_pll_clock+0x30>)
 800344a:	f3c3 4383 	ubfx	r3, r3, #18, #4
 800344e:	3302      	adds	r3, #2
 8003450:	4358      	muls	r0, r3
 8003452:	4770      	bx	lr
 8003454:	40021000 	.word	0x40021000
 8003458:	007a1200 	.word	0x007a1200
 800345c:	003d0900 	.word	0x003d0900

08003460 <stm32_power_pll_on>:
 8003460:	4b12      	ldr	r3, [pc, #72]	; (80034ac <stm32_power_pll_on+0x4c>)
 8003462:	2802      	cmp	r0, #2
 8003464:	681a      	ldr	r2, [r3, #0]
 8003466:	f022 7280 	bic.w	r2, r2, #16777216	; 0x1000000
 800346a:	601a      	str	r2, [r3, #0]
 800346c:	685a      	ldr	r2, [r3, #4]
 800346e:	f422 1270 	bic.w	r2, r2, #3932160	; 0x3c0000
 8003472:	605a      	str	r2, [r3, #4]
 8003474:	6ada      	ldr	r2, [r3, #44]	; 0x2c
 8003476:	f022 020f 	bic.w	r2, r2, #15
 800347a:	62da      	str	r2, [r3, #44]	; 0x2c
 800347c:	6ada      	ldr	r2, [r3, #44]	; 0x2c
 800347e:	f042 0201 	orr.w	r2, r2, #1
 8003482:	62da      	str	r2, [r3, #44]	; 0x2c
 8003484:	685a      	ldr	r2, [r3, #4]
 8003486:	f442 1280 	orr.w	r2, r2, #1048576	; 0x100000
 800348a:	605a      	str	r2, [r3, #4]
 800348c:	685a      	ldr	r2, [r3, #4]
 800348e:	bf0c      	ite	eq
 8003490:	f442 3280 	orreq.w	r2, r2, #65536	; 0x10000
 8003494:	f422 3280 	bicne.w	r2, r2, #65536	; 0x10000
 8003498:	605a      	str	r2, [r3, #4]
 800349a:	681a      	ldr	r2, [r3, #0]
 800349c:	f042 7280 	orr.w	r2, r2, #16777216	; 0x1000000
 80034a0:	601a      	str	r2, [r3, #0]
 80034a2:	681a      	ldr	r2, [r3, #0]
 80034a4:	0192      	lsls	r2, r2, #6
 80034a6:	d5fc      	bpl.n	80034a2 <stm32_power_pll_on+0x42>
 80034a8:	4770      	bx	lr
 80034aa:	bf00      	nop
 80034ac:	40021000 	.word	0x40021000

080034b0 <stm32_power_hse_on>:
 80034b0:	4b07      	ldr	r3, [pc, #28]	; (80034d0 <stm32_power_hse_on+0x20>)
 80034b2:	681a      	ldr	r2, [r3, #0]
 80034b4:	03d0      	lsls	r0, r2, #15
 80034b6:	d40a      	bmi.n	80034ce <stm32_power_hse_on+0x1e>
 80034b8:	681a      	ldr	r2, [r3, #0]
 80034ba:	f442 3280 	orr.w	r2, r2, #65536	; 0x10000
 80034be:	601a      	str	r2, [r3, #0]
 80034c0:	f44f 62a0 	mov.w	r2, #1280	; 0x500
 80034c4:	6819      	ldr	r1, [r3, #0]
 80034c6:	0389      	lsls	r1, r1, #14
 80034c8:	d401      	bmi.n	80034ce <stm32_power_hse_on+0x1e>
 80034ca:	3a01      	subs	r2, #1
 80034cc:	d1fa      	bne.n	80034c4 <stm32_power_hse_on+0x14>
 80034ce:	4770      	bx	lr
 80034d0:	40021000 	.word	0x40021000

080034d4 <stm32_power_set_core_clock.isra.1>:
 80034d4:	b5f8      	push	{r3, r4, r5, r6, r7, lr}
 80034d6:	4b2e      	ldr	r3, [pc, #184]	; (8003590 <stm32_power_set_core_clock.isra.1+0xbc>)
 80034d8:	2200      	movs	r2, #0
 80034da:	69de      	ldr	r6, [r3, #28]
 80034dc:	61da      	str	r2, [r3, #28]
 80034de:	699d      	ldr	r5, [r3, #24]
 80034e0:	619a      	str	r2, [r3, #24]
 80034e2:	695f      	ldr	r7, [r3, #20]
 80034e4:	615a      	str	r2, [r3, #20]
 80034e6:	bf00      	nop
 80034e8:	bf00      	nop
 80034ea:	461c      	mov	r4, r3
 80034ec:	685a      	ldr	r2, [r3, #4]
 80034ee:	f022 0203 	bic.w	r2, r2, #3
 80034f2:	605a      	str	r2, [r3, #4]
 80034f4:	6862      	ldr	r2, [r4, #4]
 80034f6:	f3c2 0281 	ubfx	r2, r2, #2, #2
 80034fa:	2a00      	cmp	r2, #0
 80034fc:	d1fa      	bne.n	80034f4 <stm32_power_set_core_clock.isra.1+0x20>
 80034fe:	bf00      	nop
 8003500:	bf00      	nop
 8003502:	2802      	cmp	r0, #2
 8003504:	d007      	beq.n	8003516 <stm32_power_set_core_clock.isra.1+0x42>
 8003506:	2805      	cmp	r0, #5
 8003508:	d001      	beq.n	800350e <stm32_power_set_core_clock.isra.1+0x3a>
 800350a:	4822      	ldr	r0, [pc, #136]	; (8003594 <stm32_power_set_core_clock.isra.1+0xc0>)
 800350c:	e005      	b.n	800351a <stm32_power_set_core_clock.isra.1+0x46>
 800350e:	f7ff ff8d 	bl	800342c <get_pll_clock>
 8003512:	2202      	movs	r2, #2
 8003514:	e001      	b.n	800351a <stm32_power_set_core_clock.isra.1+0x46>
 8003516:	481f      	ldr	r0, [pc, #124]	; (8003594 <stm32_power_set_core_clock.isra.1+0xc0>)
 8003518:	2201      	movs	r2, #1
 800351a:	6863      	ldr	r3, [r4, #4]
 800351c:	f423 5160 	bic.w	r1, r3, #14336	; 0x3800
 8003520:	2300      	movs	r3, #0
 8003522:	f8df e074 	ldr.w	lr, [pc, #116]	; 8003598 <stm32_power_set_core_clock.isra.1+0xc4>
 8003526:	fa20 fc03 	lsr.w	ip, r0, r3
 800352a:	45f4      	cmp	ip, lr
 800352c:	d903      	bls.n	8003536 <stm32_power_set_core_clock.isra.1+0x62>
 800352e:	3301      	adds	r3, #1
 8003530:	2b05      	cmp	r3, #5
 8003532:	d1f6      	bne.n	8003522 <stm32_power_set_core_clock.isra.1+0x4e>
 8003534:	e000      	b.n	8003538 <stm32_power_set_core_clock.isra.1+0x64>
 8003536:	b103      	cbz	r3, 800353a <stm32_power_set_core_clock.isra.1+0x66>
 8003538:	3303      	adds	r3, #3
 800353a:	ea41 23c3 	orr.w	r3, r1, r3, lsl #11
 800353e:	6063      	str	r3, [r4, #4]
 8003540:	6863      	ldr	r3, [r4, #4]
 8003542:	f423 61e0 	bic.w	r1, r3, #1792	; 0x700
 8003546:	2300      	movs	r3, #0
 8003548:	f8df e050 	ldr.w	lr, [pc, #80]	; 800359c <stm32_power_set_core_clock.isra.1+0xc8>
 800354c:	fa20 fc03 	lsr.w	ip, r0, r3
 8003550:	45f4      	cmp	ip, lr
 8003552:	d903      	bls.n	800355c <stm32_power_set_core_clock.isra.1+0x88>
 8003554:	3301      	adds	r3, #1
 8003556:	2b05      	cmp	r3, #5
 8003558:	d1f6      	bne.n	8003548 <stm32_power_set_core_clock.isra.1+0x74>
 800355a:	e000      	b.n	800355e <stm32_power_set_core_clock.isra.1+0x8a>
 800355c:	b103      	cbz	r3, 8003560 <stm32_power_set_core_clock.isra.1+0x8c>
 800355e:	3303      	adds	r3, #3
 8003560:	ea41 2303 	orr.w	r3, r1, r3, lsl #8
 8003564:	6063      	str	r3, [r4, #4]
 8003566:	f3bf 8f4f 	dsb	sy
 800356a:	f3bf 8f5f 	dmb	sy
 800356e:	bf00      	nop
 8003570:	bf00      	nop
 8003572:	6863      	ldr	r3, [r4, #4]
 8003574:	4313      	orrs	r3, r2
 8003576:	6063      	str	r3, [r4, #4]
 8003578:	6861      	ldr	r1, [r4, #4]
 800357a:	4b05      	ldr	r3, [pc, #20]	; (8003590 <stm32_power_set_core_clock.isra.1+0xbc>)
 800357c:	f3c1 0181 	ubfx	r1, r1, #2, #2
 8003580:	4291      	cmp	r1, r2
 8003582:	d1f9      	bne.n	8003578 <stm32_power_set_core_clock.isra.1+0xa4>
 8003584:	bf00      	nop
 8003586:	bf00      	nop
 8003588:	615f      	str	r7, [r3, #20]
 800358a:	61de      	str	r6, [r3, #28]
 800358c:	619d      	str	r5, [r3, #24]
 800358e:	bdf8      	pop	{r3, r4, r5, r6, r7, pc}
 8003590:	40021000 	.word	0x40021000
 8003594:	007a1200 	.word	0x007a1200
 8003598:	044aa200 	.word	0x044aa200
 800359c:	02255100 	.word	0x02255100

080035a0 <get_core_clock>:
 80035a0:	4b07      	ldr	r3, [pc, #28]	; (80035c0 <get_core_clock+0x20>)
 80035a2:	685b      	ldr	r3, [r3, #4]
 80035a4:	f003 030c 	and.w	r3, r3, #12
 80035a8:	2b04      	cmp	r3, #4
 80035aa:	d006      	beq.n	80035ba <get_core_clock+0x1a>
 80035ac:	2b08      	cmp	r3, #8
 80035ae:	d002      	beq.n	80035b6 <get_core_clock+0x16>
 80035b0:	b11b      	cbz	r3, 80035ba <get_core_clock+0x1a>
 80035b2:	2000      	movs	r0, #0
 80035b4:	4770      	bx	lr
 80035b6:	f7ff bf39 	b.w	800342c <get_pll_clock>
 80035ba:	4802      	ldr	r0, [pc, #8]	; (80035c4 <get_core_clock+0x24>)
 80035bc:	4770      	bx	lr
 80035be:	bf00      	nop
 80035c0:	40021000 	.word	0x40021000
 80035c4:	007a1200 	.word	0x007a1200

080035c8 <get_ahb_clock>:
 80035c8:	4b0a      	ldr	r3, [pc, #40]	; (80035f4 <get_ahb_clock+0x2c>)
 80035ca:	b510      	push	{r4, lr}
 80035cc:	685a      	ldr	r2, [r3, #4]
 80035ce:	0612      	lsls	r2, r2, #24
 80035d0:	d509      	bpl.n	80035e6 <get_ahb_clock+0x1e>
 80035d2:	685b      	ldr	r3, [r3, #4]
 80035d4:	2401      	movs	r4, #1
 80035d6:	f3c3 1302 	ubfx	r3, r3, #4, #3
 80035da:	3301      	adds	r3, #1
 80035dc:	409c      	lsls	r4, r3
 80035de:	2c1f      	cmp	r4, #31
 80035e0:	dd02      	ble.n	80035e8 <get_ahb_clock+0x20>
 80035e2:	0064      	lsls	r4, r4, #1
 80035e4:	e000      	b.n	80035e8 <get_ahb_clock+0x20>
 80035e6:	2401      	movs	r4, #1
 80035e8:	f7ff ffda 	bl	80035a0 <get_core_clock>
 80035ec:	fb90 f0f4 	sdiv	r0, r0, r4
 80035f0:	bd10      	pop	{r4, pc}
 80035f2:	bf00      	nop
 80035f4:	40021000 	.word	0x40021000

080035f8 <get_apb2_clock>:
 80035f8:	4b08      	ldr	r3, [pc, #32]	; (800361c <get_apb2_clock+0x24>)
 80035fa:	b510      	push	{r4, lr}
 80035fc:	685a      	ldr	r2, [r3, #4]
 80035fe:	0492      	lsls	r2, r2, #18
 8003600:	bf41      	itttt	mi
 8003602:	685b      	ldrmi	r3, [r3, #4]
 8003604:	2401      	movmi	r4, #1
 8003606:	f3c3 23c1 	ubfxmi	r3, r3, #11, #2
 800360a:	3301      	addmi	r3, #1
 800360c:	bf4c      	ite	mi
 800360e:	409c      	lslmi	r4, r3
 8003610:	2401      	movpl	r4, #1
 8003612:	f7ff ffd9 	bl	80035c8 <get_ahb_clock>
 8003616:	fb90 f0f4 	sdiv	r0, r0, r4
 800361a:	bd10      	pop	{r4, pc}
 800361c:	40021000 	.word	0x40021000

08003620 <get_apb1_clock>:
 8003620:	4b08      	ldr	r3, [pc, #32]	; (8003644 <get_apb1_clock+0x24>)
 8003622:	b510      	push	{r4, lr}
 8003624:	685a      	ldr	r2, [r3, #4]
 8003626:	0552      	lsls	r2, r2, #21
 8003628:	bf41      	itttt	mi
 800362a:	685b      	ldrmi	r3, [r3, #4]
 800362c:	2401      	movmi	r4, #1
 800362e:	f3c3 2301 	ubfxmi	r3, r3, #8, #2
 8003632:	3301      	addmi	r3, #1
 8003634:	bf4c      	ite	mi
 8003636:	409c      	lslmi	r4, r3
 8003638:	2401      	movpl	r4, #1
 800363a:	f7ff ffc5 	bl	80035c8 <get_ahb_clock>
 800363e:	fb90 f0f4 	sdiv	r0, r0, r4
 8003642:	bd10      	pop	{r4, pc}
 8003644:	40021000 	.word	0x40021000

08003648 <get_adc_clock>:
 8003648:	b508      	push	{r3, lr}
 800364a:	f7ff ffd5 	bl	80035f8 <get_apb2_clock>
 800364e:	4b04      	ldr	r3, [pc, #16]	; (8003660 <get_adc_clock+0x18>)
 8003650:	685b      	ldr	r3, [r3, #4]
 8003652:	f3c3 3381 	ubfx	r3, r3, #14, #2
 8003656:	3301      	adds	r3, #1
 8003658:	005b      	lsls	r3, r3, #1
 800365a:	fbb0 f0f3 	udiv	r0, r0, r3
 800365e:	bd08      	pop	{r3, pc}
 8003660:	40021000 	.word	0x40021000

08003664 <get_clock>:
 8003664:	b508      	push	{r3, lr}
 8003666:	2804      	cmp	r0, #4
 8003668:	d818      	bhi.n	800369c <get_clock+0x38>
 800366a:	e8df f000 	tbb	[pc, r0]
 800366e:	0703      	.short	0x0703
 8003670:	0f0b      	.short	0x0f0b
 8003672:	13          	.byte	0x13
 8003673:	00          	.byte	0x00
 8003674:	e8bd 4008 	ldmia.w	sp!, {r3, lr}
 8003678:	f7ff bf92 	b.w	80035a0 <get_core_clock>
 800367c:	e8bd 4008 	ldmia.w	sp!, {r3, lr}
 8003680:	f7ff bfa2 	b.w	80035c8 <get_ahb_clock>
 8003684:	e8bd 4008 	ldmia.w	sp!, {r3, lr}
 8003688:	f7ff bfca 	b.w	8003620 <get_apb1_clock>
 800368c:	e8bd 4008 	ldmia.w	sp!, {r3, lr}
 8003690:	f7ff bfb2 	b.w	80035f8 <get_apb2_clock>
 8003694:	e8bd 4008 	ldmia.w	sp!, {r3, lr}
 8003698:	f7ff bfd6 	b.w	8003648 <get_adc_clock>
 800369c:	f06f 0006 	mvn.w	r0, #6
 80036a0:	f001 f8ed 	bl	800487e <error>
 80036a4:	2000      	movs	r0, #0
 80036a6:	bd08      	pop	{r3, pc}

080036a8 <stm32_power_init>:
 80036a8:	b508      	push	{r3, lr}
 80036aa:	4b12      	ldr	r3, [pc, #72]	; (80036f4 <stm32_power_init+0x4c>)
 80036ac:	2200      	movs	r2, #0
 80036ae:	61da      	str	r2, [r3, #28]
 80036b0:	619a      	str	r2, [r3, #24]
 80036b2:	615a      	str	r2, [r3, #20]
 80036b4:	605a      	str	r2, [r3, #4]
 80036b6:	62da      	str	r2, [r3, #44]	; 0x2c
 80036b8:	69d9      	ldr	r1, [r3, #28]
 80036ba:	f041 5180 	orr.w	r1, r1, #268435456	; 0x10000000
 80036be:	61d9      	str	r1, [r3, #28]
 80036c0:	6999      	ldr	r1, [r3, #24]
 80036c2:	f041 0101 	orr.w	r1, r1, #1
 80036c6:	6199      	str	r1, [r3, #24]
 80036c8:	2108      	movs	r1, #8
 80036ca:	f5a3 3388 	sub.w	r3, r3, #69632	; 0x11000
 80036ce:	6059      	str	r1, [r3, #4]
 80036d0:	4909      	ldr	r1, [pc, #36]	; (80036f8 <stm32_power_init+0x50>)
 80036d2:	684b      	ldr	r3, [r1, #4]
 80036d4:	f423 7380 	bic.w	r3, r3, #256	; 0x100
 80036d8:	604b      	str	r3, [r1, #4]
 80036da:	62c2      	str	r2, [r0, #44]	; 0x2c
 80036dc:	6302      	str	r2, [r0, #48]	; 0x30
 80036de:	6342      	str	r2, [r0, #52]	; 0x34
 80036e0:	f7ff fee6 	bl	80034b0 <stm32_power_hse_on>
 80036e4:	2002      	movs	r0, #2
 80036e6:	f7ff febb 	bl	8003460 <stm32_power_pll_on>
 80036ea:	e8bd 4008 	ldmia.w	sp!, {r3, lr}
 80036ee:	2005      	movs	r0, #5
 80036f0:	f7ff bef0 	b.w	80034d4 <stm32_power_set_core_clock.isra.1>
 80036f4:	40021000 	.word	0x40021000
 80036f8:	40007000 	.word	0x40007000

080036fc <stm32_power_request>:
 80036fc:	b538      	push	{r3, r4, r5, lr}
 80036fe:	684b      	ldr	r3, [r1, #4]
 8003700:	4604      	mov	r4, r0
 8003702:	f3c3 030e 	ubfx	r3, r3, #0, #15
 8003706:	f5b3 7f81 	cmp.w	r3, #258	; 0x102
 800370a:	460d      	mov	r5, r1
 800370c:	d008      	beq.n	8003720 <stm32_power_request+0x24>
 800370e:	f240 1203 	movw	r2, #259	; 0x103
 8003712:	4293      	cmp	r3, r2
 8003714:	d009      	beq.n	800372a <stm32_power_request+0x2e>
 8003716:	f5b3 7f80 	cmp.w	r3, #256	; 0x100
 800371a:	f040 8081 	bne.w	8003820 <stm32_power_request+0x124>
 800371e:	e046      	b.n	80037ae <stm32_power_request+0xb2>
 8003720:	7a08      	ldrb	r0, [r1, #8]
 8003722:	f7ff ff9f 	bl	8003664 <get_clock>
 8003726:	60e8      	str	r0, [r5, #12]
 8003728:	bd38      	pop	{r3, r4, r5, pc}
 800372a:	690b      	ldr	r3, [r1, #16]
 800372c:	7a0a      	ldrb	r2, [r1, #8]
 800372e:	3300      	adds	r3, #0
 8003730:	68c8      	ldr	r0, [r1, #12]
 8003732:	bf18      	it	ne
 8003734:	2301      	movne	r3, #1
 8003736:	2a05      	cmp	r2, #5
 8003738:	d872      	bhi.n	8003820 <stm32_power_request+0x124>
 800373a:	e8df f002 	tbb	[pc, r2]
 800373e:	1f03      	.short	0x1f03
 8003740:	2c717122 	.word	0x2c717122
 8003744:	b2c0      	uxtb	r0, r0
 8003746:	eb04 0480 	add.w	r4, r4, r0, lsl #2
 800374a:	b153      	cbz	r3, 8003762 <stm32_power_request+0x66>
 800374c:	6b23      	ldr	r3, [r4, #48]	; 0x30
 800374e:	1c5a      	adds	r2, r3, #1
 8003750:	6322      	str	r2, [r4, #48]	; 0x30
 8003752:	2b00      	cmp	r3, #0
 8003754:	d16a      	bne.n	800382c <stm32_power_request+0x130>
 8003756:	4936      	ldr	r1, [pc, #216]	; (8003830 <stm32_power_request+0x134>)
 8003758:	2301      	movs	r3, #1
 800375a:	694a      	ldr	r2, [r1, #20]
 800375c:	4083      	lsls	r3, r0
 800375e:	4313      	orrs	r3, r2
 8003760:	e00a      	b.n	8003778 <stm32_power_request+0x7c>
 8003762:	6b23      	ldr	r3, [r4, #48]	; 0x30
 8003764:	3b01      	subs	r3, #1
 8003766:	6323      	str	r3, [r4, #48]	; 0x30
 8003768:	2b00      	cmp	r3, #0
 800376a:	d15f      	bne.n	800382c <stm32_power_request+0x130>
 800376c:	4930      	ldr	r1, [pc, #192]	; (8003830 <stm32_power_request+0x134>)
 800376e:	2301      	movs	r3, #1
 8003770:	694a      	ldr	r2, [r1, #20]
 8003772:	4083      	lsls	r3, r0
 8003774:	ea22 0303 	bic.w	r3, r2, r3
 8003778:	614b      	str	r3, [r1, #20]
 800377a:	bd38      	pop	{r3, r4, r5, pc}
 800377c:	b672      	cpsid	i
 800377e:	b2c0      	uxtb	r0, r0
 8003780:	e035      	b.n	80037ee <stm32_power_request+0xf2>
 8003782:	b11b      	cbz	r3, 800378c <stm32_power_request+0x90>
 8003784:	e8bd 4038 	ldmia.w	sp!, {r3, r4, r5, lr}
 8003788:	f7ff be92 	b.w	80034b0 <stm32_power_hse_on>
 800378c:	4a28      	ldr	r2, [pc, #160]	; (8003830 <stm32_power_request+0x134>)
 800378e:	6813      	ldr	r3, [r2, #0]
 8003790:	f423 3380 	bic.w	r3, r3, #65536	; 0x10000
 8003794:	e009      	b.n	80037aa <stm32_power_request+0xae>
 8003796:	b123      	cbz	r3, 80037a2 <stm32_power_request+0xa6>
 8003798:	e8bd 4038 	ldmia.w	sp!, {r3, r4, r5, lr}
 800379c:	b2c0      	uxtb	r0, r0
 800379e:	f7ff be5f 	b.w	8003460 <stm32_power_pll_on>
 80037a2:	4a23      	ldr	r2, [pc, #140]	; (8003830 <stm32_power_request+0x134>)
 80037a4:	6813      	ldr	r3, [r2, #0]
 80037a6:	f023 7380 	bic.w	r3, r3, #16777216	; 0x1000000
 80037aa:	6013      	str	r3, [r2, #0]
 80037ac:	bd38      	pop	{r3, r4, r5, pc}
 80037ae:	7a0b      	ldrb	r3, [r1, #8]
 80037b0:	2b01      	cmp	r3, #1
 80037b2:	d023      	beq.n	80037fc <stm32_power_request+0x100>
 80037b4:	d314      	bcc.n	80037e0 <stm32_power_request+0xe4>
 80037b6:	2b04      	cmp	r3, #4
 80037b8:	d132      	bne.n	8003820 <stm32_power_request+0x124>
 80037ba:	b672      	cpsid	i
 80037bc:	f000 fb44 	bl	8003e48 <stm32_rtc_disable>
 80037c0:	4a1c      	ldr	r2, [pc, #112]	; (8003834 <stm32_power_request+0x138>)
 80037c2:	6913      	ldr	r3, [r2, #16]
 80037c4:	f043 0304 	orr.w	r3, r3, #4
 80037c8:	6113      	str	r3, [r2, #16]
 80037ca:	4b1b      	ldr	r3, [pc, #108]	; (8003838 <stm32_power_request+0x13c>)
 80037cc:	681a      	ldr	r2, [r3, #0]
 80037ce:	f042 0202 	orr.w	r2, r2, #2
 80037d2:	601a      	str	r2, [r3, #0]
 80037d4:	681a      	ldr	r2, [r3, #0]
 80037d6:	f042 0204 	orr.w	r2, r2, #4
 80037da:	601a      	str	r2, [r3, #0]
 80037dc:	bf30      	wfi
 80037de:	bd38      	pop	{r3, r4, r5, pc}
 80037e0:	f7ff fe66 	bl	80034b0 <stm32_power_hse_on>
 80037e4:	2002      	movs	r0, #2
 80037e6:	f7ff fe3b 	bl	8003460 <stm32_power_pll_on>
 80037ea:	b672      	cpsid	i
 80037ec:	2005      	movs	r0, #5
 80037ee:	f7ff fe71 	bl	80034d4 <stm32_power_set_core_clock.isra.1>
 80037f2:	4620      	mov	r0, r4
 80037f4:	f000 f978 	bl	8003ae8 <stm32_timer_pm_event>
 80037f8:	b662      	cpsie	i
 80037fa:	bd38      	pop	{r3, r4, r5, pc}
 80037fc:	b672      	cpsid	i
 80037fe:	2003      	movs	r0, #3
 8003800:	f7ff fe68 	bl	80034d4 <stm32_power_set_core_clock.isra.1>
 8003804:	4620      	mov	r0, r4
 8003806:	f000 f96f 	bl	8003ae8 <stm32_timer_pm_event>
 800380a:	b662      	cpsie	i
 800380c:	4b08      	ldr	r3, [pc, #32]	; (8003830 <stm32_power_request+0x134>)
 800380e:	681a      	ldr	r2, [r3, #0]
 8003810:	f022 7280 	bic.w	r2, r2, #16777216	; 0x1000000
 8003814:	601a      	str	r2, [r3, #0]
 8003816:	681a      	ldr	r2, [r3, #0]
 8003818:	f422 3280 	bic.w	r2, r2, #65536	; 0x10000
 800381c:	601a      	str	r2, [r3, #0]
 800381e:	bd38      	pop	{r3, r4, r5, pc}
 8003820:	f06f 0001 	mvn.w	r0, #1
 8003824:	e8bd 4038 	ldmia.w	sp!, {r3, r4, r5, lr}
 8003828:	f001 b829 	b.w	800487e <error>
 800382c:	bd38      	pop	{r3, r4, r5, pc}
 800382e:	bf00      	nop
 8003830:	40021000 	.word	0x40021000
 8003834:	e000ed00 	.word	0xe000ed00
 8003838:	40007000 	.word	0x40007000

0800383c <NVIC_SetPriority>:
 800383c:	2800      	cmp	r0, #0
 800383e:	ea4f 1101 	mov.w	r1, r1, lsl #4
 8003842:	bfaf      	iteee	ge
 8003844:	f100 4060 	addge.w	r0, r0, #3758096384	; 0xe0000000
 8003848:	4b05      	ldrlt	r3, [pc, #20]	; (8003860 <NVIC_SetPriority+0x24>)
 800384a:	f000 000f 	andlt.w	r0, r0, #15
 800384e:	b2c9      	uxtblt	r1, r1
 8003850:	bfa5      	ittet	ge
 8003852:	b2c9      	uxtbge	r1, r1
 8003854:	f500 4061 	addge.w	r0, r0, #57600	; 0xe100
 8003858:	5419      	strblt	r1, [r3, r0]
 800385a:	f880 1300 	strbge.w	r1, [r0, #768]	; 0x300
 800385e:	4770      	bx	lr
 8003860:	e000ed14 	.word	0xe000ed14

08003864 <stm32_timer_setup_clk>:
 8003864:	0bcb      	lsrs	r3, r1, #15
 8003866:	bf08      	it	eq
 8003868:	2301      	moveq	r3, #1
 800386a:	fbb1 f1f3 	udiv	r1, r1, r3
 800386e:	2901      	cmp	r1, #1
 8003870:	d905      	bls.n	800387e <stm32_timer_setup_clk+0x1a>
 8003872:	f1b1 1f01 	cmp.w	r1, #65537	; 0x10001
 8003876:	bf28      	it	cs
 8003878:	f44f 3180 	movcs.w	r1, #65536	; 0x10000
 800387c:	e000      	b.n	8003880 <stm32_timer_setup_clk+0x1c>
 800387e:	2102      	movs	r1, #2
 8003880:	4a04      	ldr	r2, [pc, #16]	; (8003894 <stm32_timer_setup_clk+0x30>)
 8003882:	3b01      	subs	r3, #1
 8003884:	f852 2020 	ldr.w	r2, [r2, r0, lsl #2]
 8003888:	3901      	subs	r1, #1
 800388a:	b29b      	uxth	r3, r3
 800388c:	b289      	uxth	r1, r1
 800388e:	8513      	strh	r3, [r2, #40]	; 0x28
 8003890:	8591      	strh	r1, [r2, #44]	; 0x2c
 8003892:	4770      	bx	lr
 8003894:	08005614 	.word	0x08005614

08003898 <hpet_elapsed>:
 8003898:	f04f 4280 	mov.w	r2, #1073741824	; 0x40000000
 800389c:	8d13      	ldrh	r3, [r2, #40]	; 0x28
 800389e:	6a00      	ldr	r0, [r0, #32]
 80038a0:	b29b      	uxth	r3, r3
 80038a2:	3301      	adds	r3, #1
 80038a4:	fb93 f0f0 	sdiv	r0, r3, r0
 80038a8:	8c92      	ldrh	r2, [r2, #36]	; 0x24
 80038aa:	b292      	uxth	r2, r2
 80038ac:	fb02 0000 	mla	r0, r2, r0, r0
 80038b0:	4770      	bx	lr

080038b2 <hpet_isr>:
 80038b2:	f04f 4280 	mov.w	r2, #1073741824	; 0x40000000
 80038b6:	8a13      	ldrh	r3, [r2, #16]
 80038b8:	f023 0301 	bic.w	r3, r3, #1
 80038bc:	041b      	lsls	r3, r3, #16
 80038be:	0c1b      	lsrs	r3, r3, #16
 80038c0:	8213      	strh	r3, [r2, #16]
 80038c2:	f001 b85f 	b.w	8004984 <systime_hpet_timeout>
 80038c6:	0000      	movs	r0, r0

080038c8 <stm32_timer_get_clock>:
 80038c8:	e92d 41f0 	stmdb	sp!, {r4, r5, r6, r7, r8, lr}
 80038cc:	460f      	mov	r7, r1
 80038ce:	b086      	sub	sp, #24
 80038d0:	4d10      	ldr	r5, [pc, #64]	; (8003914 <stm32_timer_get_clock+0x4c>)
 80038d2:	2401      	movs	r4, #1
 80038d4:	a901      	add	r1, sp, #4
 80038d6:	4606      	mov	r6, r0
 80038d8:	9502      	str	r5, [sp, #8]
 80038da:	9403      	str	r4, [sp, #12]
 80038dc:	f7ff ff0e 	bl	80036fc <stm32_power_request>
 80038e0:	2f10      	cmp	r7, #16
 80038e2:	f8dd 8010 	ldr.w	r8, [sp, #16]
 80038e6:	462a      	mov	r2, r5
 80038e8:	d806      	bhi.n	80038f8 <stm32_timer_get_clock+0x30>
 80038ea:	4b0b      	ldr	r3, [pc, #44]	; (8003918 <stm32_timer_get_clock+0x50>)
 80038ec:	40bc      	lsls	r4, r7
 80038ee:	4023      	ands	r3, r4
 80038f0:	b113      	cbz	r3, 80038f8 <stm32_timer_get_clock+0x30>
 80038f2:	9502      	str	r5, [sp, #8]
 80038f4:	2303      	movs	r3, #3
 80038f6:	e001      	b.n	80038fc <stm32_timer_get_clock+0x34>
 80038f8:	9202      	str	r2, [sp, #8]
 80038fa:	2302      	movs	r3, #2
 80038fc:	4630      	mov	r0, r6
 80038fe:	a901      	add	r1, sp, #4
 8003900:	9303      	str	r3, [sp, #12]
 8003902:	f7ff fefb 	bl	80036fc <stm32_power_request>
 8003906:	9804      	ldr	r0, [sp, #16]
 8003908:	4580      	cmp	r8, r0
 800390a:	bf18      	it	ne
 800390c:	0040      	lslne	r0, r0, #1
 800390e:	b006      	add	sp, #24
 8003910:	e8bd 81f0 	ldmia.w	sp!, {r4, r5, r6, r7, r8, pc}
 8003914:	80020102 	.word	0x80020102
 8003918:	0001c781 	.word	0x0001c781

0800391c <stm32_timer_open>:
 800391c:	4b2a      	ldr	r3, [pc, #168]	; (80039c8 <stm32_timer_open+0xac>)
 800391e:	b530      	push	{r4, r5, lr}
 8003920:	f853 4021 	ldr.w	r4, [r3, r1, lsl #2]
 8003924:	4b29      	ldr	r3, [pc, #164]	; (80039cc <stm32_timer_open+0xb0>)
 8003926:	f853 5021 	ldr.w	r5, [r3, r1, lsl #2]
 800392a:	2301      	movs	r3, #1
 800392c:	40ab      	lsls	r3, r5
 800392e:	6825      	ldr	r5, [r4, #0]
 8003930:	432b      	orrs	r3, r5
 8003932:	6023      	str	r3, [r4, #0]
 8003934:	4b26      	ldr	r3, [pc, #152]	; (80039d0 <stm32_timer_open+0xb4>)
 8003936:	0795      	lsls	r5, r2, #30
 8003938:	f853 3021 	ldr.w	r3, [r3, r1, lsl #2]
 800393c:	881c      	ldrh	r4, [r3, #0]
 800393e:	b2a4      	uxth	r4, r4
 8003940:	f044 0404 	orr.w	r4, r4, #4
 8003944:	801c      	strh	r4, [r3, #0]
 8003946:	bf41      	itttt	mi
 8003948:	881c      	ldrhmi	r4, [r3, #0]
 800394a:	b2a4      	uxthmi	r4, r4
 800394c:	f044 0408 	orrmi.w	r4, r4, #8
 8003950:	801c      	strhmi	r4, [r3, #0]
 8003952:	f012 0504 	ands.w	r5, r2, #4
 8003956:	bf1f      	itttt	ne
 8003958:	899c      	ldrhne	r4, [r3, #12]
 800395a:	b2a4      	uxthne	r4, r4
 800395c:	f044 0401 	orrne.w	r4, r4, #1
 8003960:	819c      	strhne	r4, [r3, #12]
 8003962:	03d4      	lsls	r4, r2, #15
 8003964:	bf41      	itttt	mi
 8003966:	899c      	ldrhmi	r4, [r3, #12]
 8003968:	b2a4      	uxthmi	r4, r4
 800396a:	f444 7480 	orrmi.w	r4, r4, #256	; 0x100
 800396e:	819c      	strhmi	r4, [r3, #12]
 8003970:	07d4      	lsls	r4, r2, #31
 8003972:	bf41      	itttt	mi
 8003974:	891c      	ldrhmi	r4, [r3, #8]
 8003976:	b2a4      	uxthmi	r4, r4
 8003978:	f444 4480 	orrmi.w	r4, r4, #16384	; 0x4000
 800397c:	811c      	strhmi	r4, [r3, #8]
 800397e:	b109      	cbz	r1, 8003984 <stm32_timer_open+0x68>
 8003980:	2909      	cmp	r1, #9
 8003982:	d103      	bne.n	800398c <stm32_timer_open+0x70>
 8003984:	6a43      	ldr	r3, [r0, #36]	; 0x24
 8003986:	1c5c      	adds	r4, r3, #1
 8003988:	6244      	str	r4, [r0, #36]	; 0x24
 800398a:	e006      	b.n	800399a <stm32_timer_open+0x7e>
 800398c:	2907      	cmp	r1, #7
 800398e:	d001      	beq.n	8003994 <stm32_timer_open+0x78>
 8003990:	290c      	cmp	r1, #12
 8003992:	d103      	bne.n	800399c <stm32_timer_open+0x80>
 8003994:	6a83      	ldr	r3, [r0, #40]	; 0x28
 8003996:	1c5c      	adds	r4, r3, #1
 8003998:	6284      	str	r4, [r0, #40]	; 0x28
 800399a:	b99b      	cbnz	r3, 80039c4 <stm32_timer_open+0xa8>
 800399c:	b195      	cbz	r5, 80039c4 <stm32_timer_open+0xa8>
 800399e:	4b0d      	ldr	r3, [pc, #52]	; (80039d4 <stm32_timer_open+0xb8>)
 80039a0:	f853 3021 	ldr.w	r3, [r3, r1, lsl #2]
 80039a4:	2101      	movs	r1, #1
 80039a6:	b258      	sxtb	r0, r3
 80039a8:	f003 031f 	and.w	r3, r3, #31
 80039ac:	fa01 f303 	lsl.w	r3, r1, r3
 80039b0:	4909      	ldr	r1, [pc, #36]	; (80039d8 <stm32_timer_open+0xbc>)
 80039b2:	0944      	lsrs	r4, r0, #5
 80039b4:	f841 3024 	str.w	r3, [r1, r4, lsl #2]
 80039b8:	f3c2 2107 	ubfx	r1, r2, #8, #8
 80039bc:	e8bd 4030 	ldmia.w	sp!, {r4, r5, lr}
 80039c0:	f7ff bf3c 	b.w	800383c <NVIC_SetPriority>
 80039c4:	bd30      	pop	{r4, r5, pc}
 80039c6:	bf00      	nop
 80039c8:	08005658 	.word	0x08005658
 80039cc:	0800569c 	.word	0x0800569c
 80039d0:	08005614 	.word	0x08005614
 80039d4:	080056e8 	.word	0x080056e8
 80039d8:	e000e100 	.word	0xe000e100

080039dc <stm32_timer_close>:
 80039dc:	4b19      	ldr	r3, [pc, #100]	; (8003a44 <stm32_timer_close+0x68>)
 80039de:	f853 2021 	ldr.w	r2, [r3, r1, lsl #2]
 80039e2:	8813      	ldrh	r3, [r2, #0]
 80039e4:	f023 0301 	bic.w	r3, r3, #1
 80039e8:	041b      	lsls	r3, r3, #16
 80039ea:	0c1b      	lsrs	r3, r3, #16
 80039ec:	8013      	strh	r3, [r2, #0]
 80039ee:	b109      	cbz	r1, 80039f4 <stm32_timer_close+0x18>
 80039f0:	2909      	cmp	r1, #9
 80039f2:	d103      	bne.n	80039fc <stm32_timer_close+0x20>
 80039f4:	6a43      	ldr	r3, [r0, #36]	; 0x24
 80039f6:	3b01      	subs	r3, #1
 80039f8:	6243      	str	r3, [r0, #36]	; 0x24
 80039fa:	e006      	b.n	8003a0a <stm32_timer_close+0x2e>
 80039fc:	2907      	cmp	r1, #7
 80039fe:	d001      	beq.n	8003a04 <stm32_timer_close+0x28>
 8003a00:	290c      	cmp	r1, #12
 8003a02:	d103      	bne.n	8003a0c <stm32_timer_close+0x30>
 8003a04:	6a83      	ldr	r3, [r0, #40]	; 0x28
 8003a06:	3b01      	subs	r3, #1
 8003a08:	6283      	str	r3, [r0, #40]	; 0x28
 8003a0a:	b96b      	cbnz	r3, 8003a28 <stm32_timer_close+0x4c>
 8003a0c:	4b0e      	ldr	r3, [pc, #56]	; (8003a48 <stm32_timer_close+0x6c>)
 8003a0e:	2001      	movs	r0, #1
 8003a10:	f853 2021 	ldr.w	r2, [r3, r1, lsl #2]
 8003a14:	b253      	sxtb	r3, r2
 8003a16:	f002 021f 	and.w	r2, r2, #31
 8003a1a:	fa00 f202 	lsl.w	r2, r0, r2
 8003a1e:	095b      	lsrs	r3, r3, #5
 8003a20:	480a      	ldr	r0, [pc, #40]	; (8003a4c <stm32_timer_close+0x70>)
 8003a22:	3320      	adds	r3, #32
 8003a24:	f840 2023 	str.w	r2, [r0, r3, lsl #2]
 8003a28:	4b09      	ldr	r3, [pc, #36]	; (8003a50 <stm32_timer_close+0x74>)
 8003a2a:	f853 0021 	ldr.w	r0, [r3, r1, lsl #2]
 8003a2e:	4b09      	ldr	r3, [pc, #36]	; (8003a54 <stm32_timer_close+0x78>)
 8003a30:	f853 2021 	ldr.w	r2, [r3, r1, lsl #2]
 8003a34:	2301      	movs	r3, #1
 8003a36:	fa03 f202 	lsl.w	r2, r3, r2
 8003a3a:	6803      	ldr	r3, [r0, #0]
 8003a3c:	ea23 0302 	bic.w	r3, r3, r2
 8003a40:	6003      	str	r3, [r0, #0]
 8003a42:	4770      	bx	lr
 8003a44:	08005614 	.word	0x08005614
 8003a48:	080056e8 	.word	0x080056e8
 8003a4c:	e000e100 	.word	0xe000e100
 8003a50:	08005658 	.word	0x08005658
 8003a54:	0800569c 	.word	0x0800569c

08003a58 <stm32_timer_start>:
 8003a58:	b538      	push	{r3, r4, r5, lr}
 8003a5a:	460d      	mov	r5, r1
 8003a5c:	461c      	mov	r4, r3
 8003a5e:	b14a      	cbz	r2, 8003a74 <stm32_timer_start+0x1c>
 8003a60:	2a01      	cmp	r2, #1
 8003a62:	d10d      	bne.n	8003a80 <stm32_timer_start+0x28>
 8003a64:	f7ff ff30 	bl	80038c8 <stm32_timer_get_clock>
 8003a68:	490e      	ldr	r1, [pc, #56]	; (8003aa4 <stm32_timer_start+0x4c>)
 8003a6a:	fbb0 f1f1 	udiv	r1, r0, r1
 8003a6e:	4628      	mov	r0, r5
 8003a70:	4361      	muls	r1, r4
 8003a72:	e007      	b.n	8003a84 <stm32_timer_start+0x2c>
 8003a74:	f7ff ff28 	bl	80038c8 <stm32_timer_get_clock>
 8003a78:	fbb0 f1f4 	udiv	r1, r0, r4
 8003a7c:	4628      	mov	r0, r5
 8003a7e:	e001      	b.n	8003a84 <stm32_timer_start+0x2c>
 8003a80:	4608      	mov	r0, r1
 8003a82:	4619      	mov	r1, r3
 8003a84:	f7ff feee 	bl	8003864 <stm32_timer_setup_clk>
 8003a88:	4b07      	ldr	r3, [pc, #28]	; (8003aa8 <stm32_timer_start+0x50>)
 8003a8a:	f853 2025 	ldr.w	r2, [r3, r5, lsl #2]
 8003a8e:	2300      	movs	r3, #0
 8003a90:	8493      	strh	r3, [r2, #36]	; 0x24
 8003a92:	2301      	movs	r3, #1
 8003a94:	8293      	strh	r3, [r2, #20]
 8003a96:	8813      	ldrh	r3, [r2, #0]
 8003a98:	b29b      	uxth	r3, r3
 8003a9a:	f043 0301 	orr.w	r3, r3, #1
 8003a9e:	8013      	strh	r3, [r2, #0]
 8003aa0:	bd38      	pop	{r3, r4, r5, pc}
 8003aa2:	bf00      	nop
 8003aa4:	000f4240 	.word	0x000f4240
 8003aa8:	08005614 	.word	0x08005614

08003aac <hpet_start>:
 8003aac:	6a0b      	ldr	r3, [r1, #32]
 8003aae:	2202      	movs	r2, #2
 8003ab0:	4343      	muls	r3, r0
 8003ab2:	4608      	mov	r0, r1
 8003ab4:	2101      	movs	r1, #1
 8003ab6:	f7ff bfcf 	b.w	8003a58 <stm32_timer_start>
 8003aba:	0000      	movs	r0, r0

08003abc <stm32_timer_stop>:
 8003abc:	4b07      	ldr	r3, [pc, #28]	; (8003adc <stm32_timer_stop+0x20>)
 8003abe:	f853 2020 	ldr.w	r2, [r3, r0, lsl #2]
 8003ac2:	8813      	ldrh	r3, [r2, #0]
 8003ac4:	f023 0301 	bic.w	r3, r3, #1
 8003ac8:	041b      	lsls	r3, r3, #16
 8003aca:	0c1b      	lsrs	r3, r3, #16
 8003acc:	8013      	strh	r3, [r2, #0]
 8003ace:	8a13      	ldrh	r3, [r2, #16]
 8003ad0:	f023 0301 	bic.w	r3, r3, #1
 8003ad4:	041b      	lsls	r3, r3, #16
 8003ad6:	0c1b      	lsrs	r3, r3, #16
 8003ad8:	8213      	strh	r3, [r2, #16]
 8003ada:	4770      	bx	lr
 8003adc:	08005614 	.word	0x08005614

08003ae0 <hpet_stop>:
 8003ae0:	2001      	movs	r0, #1
 8003ae2:	f7ff bfeb 	b.w	8003abc <stm32_timer_stop>
 8003ae6:	0000      	movs	r0, r0

08003ae8 <stm32_timer_pm_event>:
 8003ae8:	b510      	push	{r4, lr}
 8003aea:	2101      	movs	r1, #1
 8003aec:	4604      	mov	r4, r0
 8003aee:	f7ff feeb 	bl	80038c8 <stm32_timer_get_clock>
 8003af2:	4b02      	ldr	r3, [pc, #8]	; (8003afc <stm32_timer_pm_event+0x14>)
 8003af4:	fbb0 f0f3 	udiv	r0, r0, r3
 8003af8:	6220      	str	r0, [r4, #32]
 8003afa:	bd10      	pop	{r4, pc}
 8003afc:	000f4240 	.word	0x000f4240

08003b00 <stm32_timer_init>:
 8003b00:	b51f      	push	{r0, r1, r2, r3, r4, lr}
 8003b02:	4604      	mov	r4, r0
 8003b04:	2300      	movs	r3, #0
 8003b06:	6283      	str	r3, [r0, #40]	; 0x28
 8003b08:	6243      	str	r3, [r0, #36]	; 0x24
 8003b0a:	4a10      	ldr	r2, [pc, #64]	; (8003b4c <stm32_timer_init+0x4c>)
 8003b0c:	4623      	mov	r3, r4
 8003b0e:	200a      	movs	r0, #10
 8003b10:	211c      	movs	r1, #28
 8003b12:	f7fc fbbd 	bl	8000290 <svc_call>
 8003b16:	4620      	mov	r0, r4
 8003b18:	2101      	movs	r1, #1
 8003b1a:	f7ff fed5 	bl	80038c8 <stm32_timer_get_clock>
 8003b1e:	4b0c      	ldr	r3, [pc, #48]	; (8003b50 <stm32_timer_init+0x50>)
 8003b20:	f640 5206 	movw	r2, #3334	; 0xd06
 8003b24:	fbb0 f0f3 	udiv	r0, r0, r3
 8003b28:	2101      	movs	r1, #1
 8003b2a:	6220      	str	r0, [r4, #32]
 8003b2c:	4620      	mov	r0, r4
 8003b2e:	f7ff fef5 	bl	800391c <stm32_timer_open>
 8003b32:	4b08      	ldr	r3, [pc, #32]	; (8003b54 <stm32_timer_init+0x54>)
 8003b34:	a801      	add	r0, sp, #4
 8003b36:	9301      	str	r3, [sp, #4]
 8003b38:	4b07      	ldr	r3, [pc, #28]	; (8003b58 <stm32_timer_init+0x58>)
 8003b3a:	4621      	mov	r1, r4
 8003b3c:	9302      	str	r3, [sp, #8]
 8003b3e:	4b07      	ldr	r3, [pc, #28]	; (8003b5c <stm32_timer_init+0x5c>)
 8003b40:	9303      	str	r3, [sp, #12]
 8003b42:	f000 ff0c 	bl	800495e <systime_hpet_setup>
 8003b46:	b004      	add	sp, #16
 8003b48:	bd10      	pop	{r4, pc}
 8003b4a:	bf00      	nop
 8003b4c:	080038b3 	.word	0x080038b3
 8003b50:	000f4240 	.word	0x000f4240
 8003b54:	08003aad 	.word	0x08003aad
 8003b58:	08003ae1 	.word	0x08003ae1
 8003b5c:	08003899 	.word	0x08003899

08003b60 <stm32_timer_request>:
 8003b60:	460b      	mov	r3, r1
 8003b62:	7a09      	ldrb	r1, [r1, #8]
 8003b64:	b5f0      	push	{r4, r5, r6, r7, lr}
 8003b66:	2910      	cmp	r1, #16
 8003b68:	d902      	bls.n	8003b70 <stm32_timer_request+0x10>
 8003b6a:	f06f 0006 	mvn.w	r0, #6
 8003b6e:	e086      	b.n	8003c7e <stm32_timer_request+0x11e>
 8003b70:	685a      	ldr	r2, [r3, #4]
 8003b72:	f3c2 020e 	ubfx	r2, r2, #0, #15
 8003b76:	f5b2 7f80 	cmp.w	r2, #256	; 0x100
 8003b7a:	d015      	beq.n	8003ba8 <stm32_timer_request+0x48>
 8003b7c:	d807      	bhi.n	8003b8e <stm32_timer_request+0x2e>
 8003b7e:	2a08      	cmp	r2, #8
 8003b80:	d00d      	beq.n	8003b9e <stm32_timer_request+0x3e>
 8003b82:	2a09      	cmp	r2, #9
 8003b84:	d179      	bne.n	8003c7a <stm32_timer_request+0x11a>
 8003b86:	e8bd 40f0 	ldmia.w	sp!, {r4, r5, r6, r7, lr}
 8003b8a:	f7ff bf27 	b.w	80039dc <stm32_timer_close>
 8003b8e:	f240 1001 	movw	r0, #257	; 0x101
 8003b92:	4282      	cmp	r2, r0
 8003b94:	d00e      	beq.n	8003bb4 <stm32_timer_request+0x54>
 8003b96:	f5b2 7f81 	cmp.w	r2, #258	; 0x102
 8003b9a:	d010      	beq.n	8003bbe <stm32_timer_request+0x5e>
 8003b9c:	e06d      	b.n	8003c7a <stm32_timer_request+0x11a>
 8003b9e:	68da      	ldr	r2, [r3, #12]
 8003ba0:	e8bd 40f0 	ldmia.w	sp!, {r4, r5, r6, r7, lr}
 8003ba4:	f7ff beba 	b.w	800391c <stm32_timer_open>
 8003ba8:	7b1a      	ldrb	r2, [r3, #12]
 8003baa:	e8bd 40f0 	ldmia.w	sp!, {r4, r5, r6, r7, lr}
 8003bae:	691b      	ldr	r3, [r3, #16]
 8003bb0:	f7ff bf52 	b.w	8003a58 <stm32_timer_start>
 8003bb4:	4608      	mov	r0, r1
 8003bb6:	e8bd 40f0 	ldmia.w	sp!, {r4, r5, r6, r7, lr}
 8003bba:	f7ff bf7f 	b.w	8003abc <stm32_timer_stop>
 8003bbe:	68dc      	ldr	r4, [r3, #12]
 8003bc0:	6918      	ldr	r0, [r3, #16]
 8003bc2:	4b31      	ldr	r3, [pc, #196]	; (8003c88 <stm32_timer_request+0x128>)
 8003bc4:	b2e2      	uxtb	r2, r4
 8003bc6:	f853 3021 	ldr.w	r3, [r3, r1, lsl #2]
 8003bca:	0095      	lsls	r5, r2, #2
 8003bcc:	8c19      	ldrh	r1, [r3, #32]
 8003bce:	2a01      	cmp	r2, #1
 8003bd0:	b28e      	uxth	r6, r1
 8003bd2:	f04f 010f 	mov.w	r1, #15
 8003bd6:	fa01 f105 	lsl.w	r1, r1, r5
 8003bda:	ea26 0101 	bic.w	r1, r6, r1
 8003bde:	f3c4 2407 	ubfx	r4, r4, #8, #8
 8003be2:	8419      	strh	r1, [r3, #32]
 8003be4:	dc08      	bgt.n	8003bf8 <stm32_timer_request+0x98>
 8003be6:	8b19      	ldrh	r1, [r3, #24]
 8003be8:	00d7      	lsls	r7, r2, #3
 8003bea:	b28e      	uxth	r6, r1
 8003bec:	21ff      	movs	r1, #255	; 0xff
 8003bee:	40b9      	lsls	r1, r7
 8003bf0:	ea26 0101 	bic.w	r1, r6, r1
 8003bf4:	8319      	strh	r1, [r3, #24]
 8003bf6:	e008      	b.n	8003c0a <stm32_timer_request+0xaa>
 8003bf8:	8b99      	ldrh	r1, [r3, #28]
 8003bfa:	1e97      	subs	r7, r2, #2
 8003bfc:	b28e      	uxth	r6, r1
 8003bfe:	00ff      	lsls	r7, r7, #3
 8003c00:	21ff      	movs	r1, #255	; 0xff
 8003c02:	40b9      	lsls	r1, r7
 8003c04:	ea26 0101 	bic.w	r1, r6, r1
 8003c08:	8399      	strh	r1, [r3, #28]
 8003c0a:	2c00      	cmp	r4, #0
 8003c0c:	d03b      	beq.n	8003c86 <stm32_timer_request+0x126>
 8003c0e:	1e61      	subs	r1, r4, #1
 8003c10:	b2c9      	uxtb	r1, r1
 8003c12:	2903      	cmp	r1, #3
 8003c14:	bf9b      	ittet	ls
 8003c16:	4c1d      	ldrls	r4, [pc, #116]	; (8003c8c <stm32_timer_request+0x12c>)
 8003c18:	4e1d      	ldrls	r6, [pc, #116]	; (8003c90 <stm32_timer_request+0x130>)
 8003c1a:	2100      	movhi	r1, #0
 8003c1c:	5c64      	ldrbls	r4, [r4, r1]
 8003c1e:	bf8c      	ite	hi
 8003c20:	460c      	movhi	r4, r1
 8003c22:	5c71      	ldrbls	r1, [r6, r1]
 8003c24:	2a03      	cmp	r2, #3
 8003c26:	d810      	bhi.n	8003c4a <stm32_timer_request+0xea>
 8003c28:	e8df f002 	tbb	[pc, r2]
 8003c2c:	0b080502 	.word	0x0b080502
 8003c30:	b280      	uxth	r0, r0
 8003c32:	8698      	strh	r0, [r3, #52]	; 0x34
 8003c34:	e00b      	b.n	8003c4e <stm32_timer_request+0xee>
 8003c36:	b280      	uxth	r0, r0
 8003c38:	8718      	strh	r0, [r3, #56]	; 0x38
 8003c3a:	e008      	b.n	8003c4e <stm32_timer_request+0xee>
 8003c3c:	b280      	uxth	r0, r0
 8003c3e:	8798      	strh	r0, [r3, #60]	; 0x3c
 8003c40:	e00c      	b.n	8003c5c <stm32_timer_request+0xfc>
 8003c42:	b280      	uxth	r0, r0
 8003c44:	f8a3 0040 	strh.w	r0, [r3, #64]	; 0x40
 8003c48:	e008      	b.n	8003c5c <stm32_timer_request+0xfc>
 8003c4a:	2a01      	cmp	r2, #1
 8003c4c:	dc06      	bgt.n	8003c5c <stm32_timer_request+0xfc>
 8003c4e:	8b18      	ldrh	r0, [r3, #24]
 8003c50:	00d2      	lsls	r2, r2, #3
 8003c52:	4094      	lsls	r4, r2
 8003c54:	4304      	orrs	r4, r0
 8003c56:	b2a4      	uxth	r4, r4
 8003c58:	831c      	strh	r4, [r3, #24]
 8003c5a:	e006      	b.n	8003c6a <stm32_timer_request+0x10a>
 8003c5c:	3a02      	subs	r2, #2
 8003c5e:	8b98      	ldrh	r0, [r3, #28]
 8003c60:	00d2      	lsls	r2, r2, #3
 8003c62:	4094      	lsls	r4, r2
 8003c64:	4304      	orrs	r4, r0
 8003c66:	b2a4      	uxth	r4, r4
 8003c68:	839c      	strh	r4, [r3, #28]
 8003c6a:	8c18      	ldrh	r0, [r3, #32]
 8003c6c:	f041 0201 	orr.w	r2, r1, #1
 8003c70:	40aa      	lsls	r2, r5
 8003c72:	4302      	orrs	r2, r0
 8003c74:	b292      	uxth	r2, r2
 8003c76:	841a      	strh	r2, [r3, #32]
 8003c78:	bdf0      	pop	{r4, r5, r6, r7, pc}
 8003c7a:	f06f 0001 	mvn.w	r0, #1
 8003c7e:	e8bd 40f0 	ldmia.w	sp!, {r4, r5, r6, r7, lr}
 8003c82:	f000 bdfc 	b.w	800487e <error>
 8003c86:	bdf0      	pop	{r4, r5, r6, r7, pc}
 8003c88:	08005614 	.word	0x08005614
 8003c8c:	080056e0 	.word	0x080056e0
 8003c90:	080056e4 	.word	0x080056e4

08003c94 <enter_configuration>:
 8003c94:	4a04      	ldr	r2, [pc, #16]	; (8003ca8 <enter_configuration+0x14>)
 8003c96:	8893      	ldrh	r3, [r2, #4]
 8003c98:	069b      	lsls	r3, r3, #26
 8003c9a:	d5fb      	bpl.n	8003c94 <enter_configuration>
 8003c9c:	8893      	ldrh	r3, [r2, #4]
 8003c9e:	b29b      	uxth	r3, r3
 8003ca0:	f043 0310 	orr.w	r3, r3, #16
 8003ca4:	8093      	strh	r3, [r2, #4]
 8003ca6:	4770      	bx	lr
 8003ca8:	40002800 	.word	0x40002800

08003cac <leave_configuration>:
 8003cac:	4a05      	ldr	r2, [pc, #20]	; (8003cc4 <leave_configuration+0x18>)
 8003cae:	8893      	ldrh	r3, [r2, #4]
 8003cb0:	f023 0310 	bic.w	r3, r3, #16
 8003cb4:	041b      	lsls	r3, r3, #16
 8003cb6:	0c1b      	lsrs	r3, r3, #16
 8003cb8:	8093      	strh	r3, [r2, #4]
 8003cba:	8893      	ldrh	r3, [r2, #4]
 8003cbc:	069b      	lsls	r3, r3, #26
 8003cbe:	d5fc      	bpl.n	8003cba <leave_configuration+0xe>
 8003cc0:	4770      	bx	lr
 8003cc2:	bf00      	nop
 8003cc4:	40002800 	.word	0x40002800

08003cc8 <stm32_rtc_isr>:
 8003cc8:	4b03      	ldr	r3, [pc, #12]	; (8003cd8 <stm32_rtc_isr+0x10>)
 8003cca:	889a      	ldrh	r2, [r3, #4]
 8003ccc:	0692      	lsls	r2, r2, #26
 8003cce:	d5fb      	bpl.n	8003cc8 <stm32_rtc_isr>
 8003cd0:	2200      	movs	r2, #0
 8003cd2:	809a      	strh	r2, [r3, #4]
 8003cd4:	f000 be4a 	b.w	800496c <systime_second_pulse>
 8003cd8:	40002800 	.word	0x40002800

08003cdc <stm32_rtc_init>:
 8003cdc:	b508      	push	{r3, lr}
 8003cde:	4b24      	ldr	r3, [pc, #144]	; (8003d70 <stm32_rtc_init+0x94>)
 8003ce0:	4924      	ldr	r1, [pc, #144]	; (8003d74 <stm32_rtc_init+0x98>)
 8003ce2:	69da      	ldr	r2, [r3, #28]
 8003ce4:	f042 6200 	orr.w	r2, r2, #134217728	; 0x8000000
 8003ce8:	61da      	str	r2, [r3, #28]
 8003cea:	680a      	ldr	r2, [r1, #0]
 8003cec:	f442 7280 	orr.w	r2, r2, #256	; 0x100
 8003cf0:	600a      	str	r2, [r1, #0]
 8003cf2:	6a1a      	ldr	r2, [r3, #32]
 8003cf4:	b9ea      	cbnz	r2, 8003d32 <stm32_rtc_init+0x56>
 8003cf6:	6a1a      	ldr	r2, [r3, #32]
 8003cf8:	f042 0201 	orr.w	r2, r2, #1
 8003cfc:	621a      	str	r2, [r3, #32]
 8003cfe:	6a19      	ldr	r1, [r3, #32]
 8003d00:	4a1b      	ldr	r2, [pc, #108]	; (8003d70 <stm32_rtc_init+0x94>)
 8003d02:	0789      	lsls	r1, r1, #30
 8003d04:	d5fb      	bpl.n	8003cfe <stm32_rtc_init+0x22>
 8003d06:	6a13      	ldr	r3, [r2, #32]
 8003d08:	f443 7380 	orr.w	r3, r3, #256	; 0x100
 8003d0c:	6213      	str	r3, [r2, #32]
 8003d0e:	6a13      	ldr	r3, [r2, #32]
 8003d10:	f443 4300 	orr.w	r3, r3, #32768	; 0x8000
 8003d14:	6213      	str	r3, [r2, #32]
 8003d16:	f7ff ffbd 	bl	8003c94 <enter_configuration>
 8003d1a:	f647 71ff 	movw	r1, #32767	; 0x7fff
 8003d1e:	4b16      	ldr	r3, [pc, #88]	; (8003d78 <stm32_rtc_init+0x9c>)
 8003d20:	2200      	movs	r2, #0
 8003d22:	811a      	strh	r2, [r3, #8]
 8003d24:	8199      	strh	r1, [r3, #12]
 8003d26:	831a      	strh	r2, [r3, #24]
 8003d28:	839a      	strh	r2, [r3, #28]
 8003d2a:	841a      	strh	r2, [r3, #32]
 8003d2c:	849a      	strh	r2, [r3, #36]	; 0x24
 8003d2e:	f7ff ffbd 	bl	8003cac <leave_configuration>
 8003d32:	4b11      	ldr	r3, [pc, #68]	; (8003d78 <stm32_rtc_init+0x9c>)
 8003d34:	889a      	ldrh	r2, [r3, #4]
 8003d36:	f002 0208 	and.w	r2, r2, #8
 8003d3a:	b292      	uxth	r2, r2
 8003d3c:	809a      	strh	r2, [r3, #4]
 8003d3e:	889a      	ldrh	r2, [r3, #4]
 8003d40:	0710      	lsls	r0, r2, #28
 8003d42:	d5fc      	bpl.n	8003d3e <stm32_rtc_init+0x62>
 8003d44:	8899      	ldrh	r1, [r3, #4]
 8003d46:	4a0c      	ldr	r2, [pc, #48]	; (8003d78 <stm32_rtc_init+0x9c>)
 8003d48:	0689      	lsls	r1, r1, #26
 8003d4a:	d5fb      	bpl.n	8003d44 <stm32_rtc_init+0x68>
 8003d4c:	8813      	ldrh	r3, [r2, #0]
 8003d4e:	200a      	movs	r0, #10
 8003d50:	b29b      	uxth	r3, r3
 8003d52:	f043 0301 	orr.w	r3, r3, #1
 8003d56:	8013      	strh	r3, [r2, #0]
 8003d58:	2103      	movs	r1, #3
 8003d5a:	4a08      	ldr	r2, [pc, #32]	; (8003d7c <stm32_rtc_init+0xa0>)
 8003d5c:	2300      	movs	r3, #0
 8003d5e:	f7fc fa97 	bl	8000290 <svc_call>
 8003d62:	4b07      	ldr	r3, [pc, #28]	; (8003d80 <stm32_rtc_init+0xa4>)
 8003d64:	2208      	movs	r2, #8
 8003d66:	601a      	str	r2, [r3, #0]
 8003d68:	22d0      	movs	r2, #208	; 0xd0
 8003d6a:	f883 2303 	strb.w	r2, [r3, #771]	; 0x303
 8003d6e:	bd08      	pop	{r3, pc}
 8003d70:	40021000 	.word	0x40021000
 8003d74:	40007000 	.word	0x40007000
 8003d78:	40002800 	.word	0x40002800
 8003d7c:	08003cc9 	.word	0x08003cc9
 8003d80:	e000e100 	.word	0xe000e100

08003d84 <stm32_rtc_get>:
 8003d84:	4b0a      	ldr	r3, [pc, #40]	; (8003db0 <stm32_rtc_get+0x2c>)
 8003d86:	490b      	ldr	r1, [pc, #44]	; (8003db4 <stm32_rtc_get+0x30>)
 8003d88:	8b1a      	ldrh	r2, [r3, #24]
 8003d8a:	8b9b      	ldrh	r3, [r3, #28]
 8003d8c:	b510      	push	{r4, lr}
 8003d8e:	b29b      	uxth	r3, r3
 8003d90:	ea43 4202 	orr.w	r2, r3, r2, lsl #16
 8003d94:	fbb2 f3f1 	udiv	r3, r2, r1
 8003d98:	fb01 2213 	mls	r2, r1, r3, r2
 8003d9c:	f44f 717a 	mov.w	r1, #1000	; 0x3e8
 8003da0:	434a      	muls	r2, r1
 8003da2:	f503 2333 	add.w	r3, r3, #733184	; 0xb3000
 8003da6:	f603 136e 	addw	r3, r3, #2414	; 0x96e
 8003daa:	6042      	str	r2, [r0, #4]
 8003dac:	6003      	str	r3, [r0, #0]
 8003dae:	bd10      	pop	{r4, pc}
 8003db0:	40002800 	.word	0x40002800
 8003db4:	00015180 	.word	0x00015180

08003db8 <stm32_rtc_set>:
 8003db8:	b510      	push	{r4, lr}
 8003dba:	4604      	mov	r4, r0
 8003dbc:	f7ff ff6a 	bl	8003c94 <enter_configuration>
 8003dc0:	6823      	ldr	r3, [r4, #0]
 8003dc2:	4a0d      	ldr	r2, [pc, #52]	; (8003df8 <stm32_rtc_set+0x40>)
 8003dc4:	4293      	cmp	r3, r2
 8003dc6:	bfc4      	itt	gt
 8003dc8:	f5a3 2333 	subgt.w	r3, r3, #733184	; 0xb3000
 8003dcc:	490b      	ldrgt	r1, [pc, #44]	; (8003dfc <stm32_rtc_set+0x44>)
 8003dce:	6862      	ldr	r2, [r4, #4]
 8003dd0:	bfc4      	itt	gt
 8003dd2:	f6a3 136e 	subwgt	r3, r3, #2414	; 0x96e
 8003dd6:	4359      	mulgt	r1, r3
 8003dd8:	e8bd 4010 	ldmia.w	sp!, {r4, lr}
 8003ddc:	f44f 737a 	mov.w	r3, #1000	; 0x3e8
 8003de0:	fbb2 f3f3 	udiv	r3, r2, r3
 8003de4:	bfd8      	it	le
 8003de6:	2100      	movle	r1, #0
 8003de8:	440b      	add	r3, r1
 8003dea:	4a05      	ldr	r2, [pc, #20]	; (8003e00 <stm32_rtc_set+0x48>)
 8003dec:	0c19      	lsrs	r1, r3, #16
 8003dee:	b29b      	uxth	r3, r3
 8003df0:	8311      	strh	r1, [r2, #24]
 8003df2:	8393      	strh	r3, [r2, #28]
 8003df4:	f7ff bf5a 	b.w	8003cac <leave_configuration>
 8003df8:	000b396d 	.word	0x000b396d
 8003dfc:	00015180 	.word	0x00015180
 8003e00:	40002800 	.word	0x40002800

08003e04 <stm32_rtc_request>:
 8003e04:	6843      	ldr	r3, [r0, #4]
 8003e06:	b513      	push	{r0, r1, r4, lr}
 8003e08:	f3c3 030e 	ubfx	r3, r3, #0, #15
 8003e0c:	f5b3 7f80 	cmp.w	r3, #256	; 0x100
 8003e10:	4604      	mov	r4, r0
 8003e12:	d00b      	beq.n	8003e2c <stm32_rtc_request+0x28>
 8003e14:	f240 1201 	movw	r2, #257	; 0x101
 8003e18:	4293      	cmp	r3, r2
 8003e1a:	d10f      	bne.n	8003e3c <stm32_rtc_request+0x38>
 8003e1c:	6883      	ldr	r3, [r0, #8]
 8003e1e:	9300      	str	r3, [sp, #0]
 8003e20:	68c3      	ldr	r3, [r0, #12]
 8003e22:	4668      	mov	r0, sp
 8003e24:	9301      	str	r3, [sp, #4]
 8003e26:	f7ff ffc7 	bl	8003db8 <stm32_rtc_set>
 8003e2a:	e00b      	b.n	8003e44 <stm32_rtc_request+0x40>
 8003e2c:	4668      	mov	r0, sp
 8003e2e:	f7ff ffa9 	bl	8003d84 <stm32_rtc_get>
 8003e32:	9b00      	ldr	r3, [sp, #0]
 8003e34:	60a3      	str	r3, [r4, #8]
 8003e36:	9b01      	ldr	r3, [sp, #4]
 8003e38:	60e3      	str	r3, [r4, #12]
 8003e3a:	e003      	b.n	8003e44 <stm32_rtc_request+0x40>
 8003e3c:	f06f 0001 	mvn.w	r0, #1
 8003e40:	f000 fd1d 	bl	800487e <error>
 8003e44:	b002      	add	sp, #8
 8003e46:	bd10      	pop	{r4, pc}

08003e48 <stm32_rtc_disable>:
 8003e48:	4b03      	ldr	r3, [pc, #12]	; (8003e58 <stm32_rtc_disable+0x10>)
 8003e4a:	889a      	ldrh	r2, [r3, #4]
 8003e4c:	0692      	lsls	r2, r2, #26
 8003e4e:	d5fb      	bpl.n	8003e48 <stm32_rtc_disable>
 8003e50:	2200      	movs	r2, #0
 8003e52:	801a      	strh	r2, [r3, #0]
 8003e54:	4770      	bx	lr
 8003e56:	bf00      	nop
 8003e58:	40002800 	.word	0x40002800

08003e5c <stm32_core_loop>:
 8003e5c:	b510      	push	{r4, lr}
 8003e5e:	4604      	mov	r4, r0
 8003e60:	b086      	sub	sp, #24
 8003e62:	a801      	add	r0, sp, #4
 8003e64:	f000 fc97 	bl	8004796 <ipc_read>
 8003e68:	f8bd 300a 	ldrh.w	r3, [sp, #10]
 8003e6c:	f3c3 030e 	ubfx	r3, r3, #0, #15
 8003e70:	3b01      	subs	r3, #1
 8003e72:	2b05      	cmp	r3, #5
 8003e74:	d81c      	bhi.n	8003eb0 <stm32_core_loop+0x54>
 8003e76:	e8df f003 	tbb	[pc, r3]
 8003e7a:	0308      	.short	0x0308
 8003e7c:	161b120d 	.word	0x161b120d
 8003e80:	4620      	mov	r0, r4
 8003e82:	a901      	add	r1, sp, #4
 8003e84:	f7ff fc3a 	bl	80036fc <stm32_power_request>
 8003e88:	e016      	b.n	8003eb8 <stm32_core_loop+0x5c>
 8003e8a:	4620      	mov	r0, r4
 8003e8c:	a901      	add	r1, sp, #4
 8003e8e:	f7ff fa65 	bl	800335c <stm32_pin_request>
 8003e92:	e011      	b.n	8003eb8 <stm32_core_loop+0x5c>
 8003e94:	4620      	mov	r0, r4
 8003e96:	a901      	add	r1, sp, #4
 8003e98:	f7ff fe62 	bl	8003b60 <stm32_timer_request>
 8003e9c:	e00c      	b.n	8003eb8 <stm32_core_loop+0x5c>
 8003e9e:	a801      	add	r0, sp, #4
 8003ea0:	f7ff ffb0 	bl	8003e04 <stm32_rtc_request>
 8003ea4:	e008      	b.n	8003eb8 <stm32_core_loop+0x5c>
 8003ea6:	4620      	mov	r0, r4
 8003ea8:	a901      	add	r1, sp, #4
 8003eaa:	f000 fa2d 	bl	8004308 <stm32_uart_request>
 8003eae:	e003      	b.n	8003eb8 <stm32_core_loop+0x5c>
 8003eb0:	f06f 0001 	mvn.w	r0, #1
 8003eb4:	f000 fce3 	bl	800487e <error>
 8003eb8:	a801      	add	r0, sp, #4
 8003eba:	f000 fc53 	bl	8004764 <ipc_write>
 8003ebe:	e7d0      	b.n	8003e62 <stm32_core_loop+0x6>

08003ec0 <stm32_core>:
 8003ec0:	b500      	push	{lr}
 8003ec2:	b093      	sub	sp, #76	; 0x4c
 8003ec4:	f000 fccb 	bl	800485e <process_get_current>
 8003ec8:	2101      	movs	r1, #1
 8003eca:	4602      	mov	r2, r0
 8003ecc:	2300      	movs	r3, #0
 8003ece:	202e      	movs	r0, #46	; 0x2e
 8003ed0:	f7fc f9de 	bl	8000290 <svc_call>
 8003ed4:	a801      	add	r0, sp, #4
 8003ed6:	f7ff fbe7 	bl	80036a8 <stm32_power_init>
 8003eda:	a801      	add	r0, sp, #4
 8003edc:	f7ff fe10 	bl	8003b00 <stm32_timer_init>
 8003ee0:	a801      	add	r0, sp, #4
 8003ee2:	f7ff fa37 	bl	8003354 <stm32_pin_init>
 8003ee6:	f7ff fef9 	bl	8003cdc <stm32_rtc_init>
 8003eea:	a801      	add	r0, sp, #4
 8003eec:	f000 fbae 	bl	800464c <stm32_uart_init>
 8003ef0:	a801      	add	r0, sp, #4
 8003ef2:	f7ff ffb3 	bl	8003e5c <stm32_core_loop>
 8003ef6:	0000      	movs	r0, r0

08003ef8 <uart_write_kernel>:
 8003ef8:	4b16      	ldr	r3, [pc, #88]	; (8003f54 <uart_write_kernel+0x5c>)
 8003efa:	b2d2      	uxtb	r2, r2
 8003efc:	f853 3022 	ldr.w	r3, [r3, r2, lsl #2]
 8003f00:	b530      	push	{r4, r5, lr}
 8003f02:	f003 041f 	and.w	r4, r3, #31
 8003f06:	f343 03c4 	sbfx	r3, r3, #3, #5
 8003f0a:	2501      	movs	r5, #1
 8003f0c:	f023 4360 	bic.w	r3, r3, #3758096384	; 0xe0000000
 8003f10:	40a5      	lsls	r5, r4
 8003f12:	f023 0303 	bic.w	r3, r3, #3
 8003f16:	4c10      	ldr	r4, [pc, #64]	; (8003f58 <uart_write_kernel+0x60>)
 8003f18:	f103 4360 	add.w	r3, r3, #3758096384	; 0xe0000000
 8003f1c:	f854 2022 	ldr.w	r2, [r4, r2, lsl #2]
 8003f20:	f503 4361 	add.w	r3, r3, #57600	; 0xe100
 8003f24:	f8c3 5080 	str.w	r5, [r3, #128]	; 0x80
 8003f28:	8994      	ldrh	r4, [r2, #12]
 8003f2a:	4401      	add	r1, r0
 8003f2c:	b2a4      	uxth	r4, r4
 8003f2e:	f044 0408 	orr.w	r4, r4, #8
 8003f32:	8194      	strh	r4, [r2, #12]
 8003f34:	4288      	cmp	r0, r1
 8003f36:	d006      	beq.n	8003f46 <uart_write_kernel+0x4e>
 8003f38:	8814      	ldrh	r4, [r2, #0]
 8003f3a:	0624      	lsls	r4, r4, #24
 8003f3c:	d5fc      	bpl.n	8003f38 <uart_write_kernel+0x40>
 8003f3e:	f810 4b01 	ldrb.w	r4, [r0], #1
 8003f42:	8094      	strh	r4, [r2, #4]
 8003f44:	e7f6      	b.n	8003f34 <uart_write_kernel+0x3c>
 8003f46:	8991      	ldrh	r1, [r2, #12]
 8003f48:	b289      	uxth	r1, r1
 8003f4a:	f041 0140 	orr.w	r1, r1, #64	; 0x40
 8003f4e:	8191      	strh	r1, [r2, #12]
 8003f50:	601d      	str	r5, [r3, #0]
 8003f52:	bd30      	pop	{r4, r5, pc}
 8003f54:	08005754 	.word	0x08005754
 8003f58:	0800576c 	.word	0x0800576c

08003f5c <stm32_uart_on_isr>:
 8003f5c:	e92d 41f0 	stmdb	sp!, {r4, r5, r6, r7, r8, lr}
 8003f60:	2825      	cmp	r0, #37	; 0x25
 8003f62:	b086      	sub	sp, #24
 8003f64:	460f      	mov	r7, r1
 8003f66:	d006      	beq.n	8003f76 <stm32_uart_on_isr+0x1a>
 8003f68:	2826      	cmp	r0, #38	; 0x26
 8003f6a:	d006      	beq.n	8003f7a <stm32_uart_on_isr+0x1e>
 8003f6c:	2827      	cmp	r0, #39	; 0x27
 8003f6e:	bf14      	ite	ne
 8003f70:	2503      	movne	r5, #3
 8003f72:	2502      	moveq	r5, #2
 8003f74:	e002      	b.n	8003f7c <stm32_uart_on_isr+0x20>
 8003f76:	2500      	movs	r5, #0
 8003f78:	e000      	b.n	8003f7c <stm32_uart_on_isr+0x20>
 8003f7a:	2501      	movs	r5, #1
 8003f7c:	4b3c      	ldr	r3, [pc, #240]	; (8004070 <stm32_uart_on_isr+0x114>)
 8003f7e:	f853 4025 	ldr.w	r4, [r3, r5, lsl #2]
 8003f82:	8826      	ldrh	r6, [r4, #0]
 8003f84:	89a3      	ldrh	r3, [r4, #12]
 8003f86:	b2b6      	uxth	r6, r6
 8003f88:	061a      	lsls	r2, r3, #24
 8003f8a:	d52c      	bpl.n	8003fe6 <stm32_uart_on_isr+0x8a>
 8003f8c:	0633      	lsls	r3, r6, #24
 8003f8e:	d52a      	bpl.n	8003fe6 <stm32_uart_on_isr+0x8a>
 8003f90:	f105 030e 	add.w	r3, r5, #14
 8003f94:	f857 3023 	ldr.w	r3, [r7, r3, lsl #2]
 8003f98:	8a18      	ldrh	r0, [r3, #16]
 8003f9a:	b320      	cbz	r0, 8003fe6 <stm32_uart_on_isr+0x8a>
 8003f9c:	89d9      	ldrh	r1, [r3, #14]
 8003f9e:	1c4a      	adds	r2, r1, #1
 8003fa0:	4419      	add	r1, r3
 8003fa2:	b292      	uxth	r2, r2
 8003fa4:	7c89      	ldrb	r1, [r1, #18]
 8003fa6:	4282      	cmp	r2, r0
 8003fa8:	81da      	strh	r2, [r3, #14]
 8003faa:	80a1      	strh	r1, [r4, #4]
 8003fac:	d326      	bcc.n	8003ffc <stm32_uart_on_isr+0xa0>
 8003fae:	f04f 0800 	mov.w	r8, #0
 8003fb2:	f8a3 8010 	strh.w	r8, [r3, #16]
 8003fb6:	f8a3 800e 	strh.w	r8, [r3, #14]
 8003fba:	f000 fc65 	bl	8004888 <process_iget_current>
 8003fbe:	4b2d      	ldr	r3, [pc, #180]	; (8004074 <stm32_uart_on_isr+0x118>)
 8003fc0:	9001      	str	r0, [sp, #4]
 8003fc2:	a801      	add	r0, sp, #4
 8003fc4:	9302      	str	r3, [sp, #8]
 8003fc6:	9503      	str	r5, [sp, #12]
 8003fc8:	f8cd 8014 	str.w	r8, [sp, #20]
 8003fcc:	f000 fbbe 	bl	800474c <ipc_ipost>
 8003fd0:	89a3      	ldrh	r3, [r4, #12]
 8003fd2:	f023 0380 	bic.w	r3, r3, #128	; 0x80
 8003fd6:	041b      	lsls	r3, r3, #16
 8003fd8:	0c1b      	lsrs	r3, r3, #16
 8003fda:	81a3      	strh	r3, [r4, #12]
 8003fdc:	89a3      	ldrh	r3, [r4, #12]
 8003fde:	b29b      	uxth	r3, r3
 8003fe0:	f043 0340 	orr.w	r3, r3, #64	; 0x40
 8003fe4:	e009      	b.n	8003ffa <stm32_uart_on_isr+0x9e>
 8003fe6:	89a3      	ldrh	r3, [r4, #12]
 8003fe8:	0658      	lsls	r0, r3, #25
 8003fea:	d507      	bpl.n	8003ffc <stm32_uart_on_isr+0xa0>
 8003fec:	0671      	lsls	r1, r6, #25
 8003fee:	d505      	bpl.n	8003ffc <stm32_uart_on_isr+0xa0>
 8003ff0:	89a3      	ldrh	r3, [r4, #12]
 8003ff2:	f023 0348 	bic.w	r3, r3, #72	; 0x48
 8003ff6:	041b      	lsls	r3, r3, #16
 8003ff8:	0c1b      	lsrs	r3, r3, #16
 8003ffa:	81a3      	strh	r3, [r4, #12]
 8003ffc:	0732      	lsls	r2, r6, #28
 8003ffe:	d026      	beq.n	800404e <stm32_uart_on_isr+0xf2>
 8004000:	0733      	lsls	r3, r6, #28
 8004002:	d506      	bpl.n	8004012 <stm32_uart_on_isr+0xb6>
 8004004:	f105 030e 	add.w	r3, r5, #14
 8004008:	f857 3023 	ldr.w	r3, [r7, r3, lsl #2]
 800400c:	f64f 72f2 	movw	r2, #65522	; 0xfff2
 8004010:	e01c      	b.n	800404c <stm32_uart_on_isr+0xf0>
 8004012:	88a3      	ldrh	r3, [r4, #4]
 8004014:	07b0      	lsls	r0, r6, #30
 8004016:	b29b      	uxth	r3, r3
 8004018:	9300      	str	r3, [sp, #0]
 800401a:	d506      	bpl.n	800402a <stm32_uart_on_isr+0xce>
 800401c:	f105 030e 	add.w	r3, r5, #14
 8004020:	f857 3023 	ldr.w	r3, [r7, r3, lsl #2]
 8004024:	f64f 62d3 	movw	r2, #65235	; 0xfed3
 8004028:	e010      	b.n	800404c <stm32_uart_on_isr+0xf0>
 800402a:	07f1      	lsls	r1, r6, #31
 800402c:	d506      	bpl.n	800403c <stm32_uart_on_isr+0xe0>
 800402e:	f105 030e 	add.w	r3, r5, #14
 8004032:	f857 3023 	ldr.w	r3, [r7, r3, lsl #2]
 8004036:	f64f 62cd 	movw	r2, #65229	; 0xfecd
 800403a:	e007      	b.n	800404c <stm32_uart_on_isr+0xf0>
 800403c:	0772      	lsls	r2, r6, #29
 800403e:	d506      	bpl.n	800404e <stm32_uart_on_isr+0xf2>
 8004040:	f64f 62ce 	movw	r2, #65230	; 0xfece
 8004044:	f105 030e 	add.w	r3, r5, #14
 8004048:	f857 3023 	ldr.w	r3, [r7, r3, lsl #2]
 800404c:	801a      	strh	r2, [r3, #0]
 800404e:	06b3      	lsls	r3, r6, #26
 8004050:	d50b      	bpl.n	800406a <stm32_uart_on_isr+0x10e>
 8004052:	88a3      	ldrh	r3, [r4, #4]
 8004054:	b29b      	uxth	r3, r3
 8004056:	9305      	str	r3, [sp, #20]
 8004058:	f000 fc16 	bl	8004888 <process_iget_current>
 800405c:	4b06      	ldr	r3, [pc, #24]	; (8004078 <stm32_uart_on_isr+0x11c>)
 800405e:	9001      	str	r0, [sp, #4]
 8004060:	a801      	add	r0, sp, #4
 8004062:	9302      	str	r3, [sp, #8]
 8004064:	9503      	str	r5, [sp, #12]
 8004066:	f000 fb71 	bl	800474c <ipc_ipost>
 800406a:	b006      	add	sp, #24
 800406c:	e8bd 81f0 	ldmia.w	sp!, {r4, r5, r6, r7, r8, pc}
 8004070:	0800576c 	.word	0x0800576c
 8004074:	00060105 	.word	0x00060105
 8004078:	00060106 	.word	0x00060106

0800407c <stream_close>:
 800407c:	2200      	movs	r2, #0
 800407e:	4601      	mov	r1, r0
 8004080:	4613      	mov	r3, r2
 8004082:	2019      	movs	r0, #25
 8004084:	f7fc b904 	b.w	8000290 <svc_call>

08004088 <stream_destroy>:
 8004088:	2200      	movs	r2, #0
 800408a:	4601      	mov	r1, r0
 800408c:	4613      	mov	r3, r2
 800408e:	2021      	movs	r0, #33	; 0x21
 8004090:	f7fc b8fe 	b.w	8000290 <svc_call>

08004094 <stream_listen.constprop.3>:
 8004094:	b538      	push	{r3, r4, r5, lr}
 8004096:	460c      	mov	r4, r1
 8004098:	4605      	mov	r5, r0
 800409a:	2000      	movs	r0, #0
 800409c:	f000 fbef 	bl	800487e <error>
 80040a0:	4629      	mov	r1, r5
 80040a2:	4622      	mov	r2, r4
 80040a4:	2306      	movs	r3, #6
 80040a6:	201c      	movs	r0, #28
 80040a8:	f7fc f8f2 	bl	8000290 <svc_call>
 80040ac:	f000 fbe2 	bl	8004874 <get_last_error>
 80040b0:	fab0 f080 	clz	r0, r0
 80040b4:	0940      	lsrs	r0, r0, #5
 80040b6:	bd38      	pop	{r3, r4, r5, pc}

080040b8 <stm32_uart_open>:
 80040b8:	e92d 47f3 	stmdb	sp!, {r0, r1, r4, r5, r6, r7, r8, r9, sl, lr}
 80040bc:	eb00 0481 	add.w	r4, r0, r1, lsl #2
 80040c0:	6ba5      	ldr	r5, [r4, #56]	; 0x38
 80040c2:	4680      	mov	r8, r0
 80040c4:	460f      	mov	r7, r1
 80040c6:	4692      	mov	sl, r2
 80040c8:	b115      	cbz	r5, 80040d0 <stm32_uart_open+0x18>
 80040ca:	f06f 0005 	mvn.w	r0, #5
 80040ce:	e007      	b.n	80040e0 <stm32_uart_open+0x28>
 80040d0:	2038      	movs	r0, #56	; 0x38
 80040d2:	f000 fc00 	bl	80048d6 <malloc>
 80040d6:	4606      	mov	r6, r0
 80040d8:	63a0      	str	r0, [r4, #56]	; 0x38
 80040da:	b920      	cbnz	r0, 80040e6 <stm32_uart_open+0x2e>
 80040dc:	f06f 00c8 	mvn.w	r0, #200	; 0xc8
 80040e0:	f000 fbcd 	bl	800487e <error>
 80040e4:	e0bb      	b.n	800425e <stm32_uart_open+0x1a6>
 80040e6:	f04f 33ff 	mov.w	r3, #4294967295
 80040ea:	f01a 0f02 	tst.w	sl, #2
 80040ee:	8005      	strh	r5, [r0, #0]
 80040f0:	6043      	str	r3, [r0, #4]
 80040f2:	6083      	str	r3, [r0, #8]
 80040f4:	6243      	str	r3, [r0, #36]	; 0x24
 80040f6:	6283      	str	r3, [r0, #40]	; 0x28
 80040f8:	8185      	strh	r5, [r0, #12]
 80040fa:	8205      	strh	r5, [r0, #16]
 80040fc:	81c5      	strh	r5, [r0, #14]
 80040fe:	d021      	beq.n	8004144 <stm32_uart_open+0x8c>
 8004100:	f10d 0908 	add.w	r9, sp, #8
 8004104:	f849 5d04 	str.w	r5, [r9, #-4]!
 8004108:	4649      	mov	r1, r9
 800410a:	2220      	movs	r2, #32
 800410c:	462b      	mov	r3, r5
 800410e:	2017      	movs	r0, #23
 8004110:	f7fc f8be 	bl	8000290 <svc_call>
 8004114:	9b01      	ldr	r3, [sp, #4]
 8004116:	6073      	str	r3, [r6, #4]
 8004118:	6ba6      	ldr	r6, [r4, #56]	; 0x38
 800411a:	6871      	ldr	r1, [r6, #4]
 800411c:	1c4a      	adds	r2, r1, #1
 800411e:	d101      	bne.n	8004124 <stm32_uart_open+0x6c>
 8004120:	4630      	mov	r0, r6
 8004122:	e047      	b.n	80041b4 <stm32_uart_open+0xfc>
 8004124:	2018      	movs	r0, #24
 8004126:	464a      	mov	r2, r9
 8004128:	462b      	mov	r3, r5
 800412a:	9501      	str	r5, [sp, #4]
 800412c:	f7fc f8b0 	bl	8000290 <svc_call>
 8004130:	9b01      	ldr	r3, [sp, #4]
 8004132:	60b3      	str	r3, [r6, #8]
 8004134:	6ba3      	ldr	r3, [r4, #56]	; 0x38
 8004136:	689a      	ldr	r2, [r3, #8]
 8004138:	6858      	ldr	r0, [r3, #4]
 800413a:	3201      	adds	r2, #1
 800413c:	d037      	beq.n	80041ae <stm32_uart_open+0xf6>
 800413e:	4639      	mov	r1, r7
 8004140:	f7ff ffa8 	bl	8004094 <stream_listen.constprop.3>
 8004144:	f01a 0601 	ands.w	r6, sl, #1
 8004148:	d042      	beq.n	80041d0 <stm32_uart_open+0x118>
 800414a:	2500      	movs	r5, #0
 800414c:	f10d 0908 	add.w	r9, sp, #8
 8004150:	f849 5d04 	str.w	r5, [r9, #-4]!
 8004154:	4649      	mov	r1, r9
 8004156:	462b      	mov	r3, r5
 8004158:	2017      	movs	r0, #23
 800415a:	2220      	movs	r2, #32
 800415c:	f8d4 a038 	ldr.w	sl, [r4, #56]	; 0x38
 8004160:	f7fc f896 	bl	8000290 <svc_call>
 8004164:	9b01      	ldr	r3, [sp, #4]
 8004166:	f8ca 3024 	str.w	r3, [sl, #36]	; 0x24
 800416a:	f8d4 a038 	ldr.w	sl, [r4, #56]	; 0x38
 800416e:	f8da 1024 	ldr.w	r1, [sl, #36]	; 0x24
 8004172:	1c4b      	adds	r3, r1, #1
 8004174:	d102      	bne.n	800417c <stm32_uart_open+0xc4>
 8004176:	f8da 0008 	ldr.w	r0, [sl, #8]
 800417a:	e014      	b.n	80041a6 <stm32_uart_open+0xee>
 800417c:	462b      	mov	r3, r5
 800417e:	2018      	movs	r0, #24
 8004180:	464a      	mov	r2, r9
 8004182:	9501      	str	r5, [sp, #4]
 8004184:	f7fc f884 	bl	8000290 <svc_call>
 8004188:	9b01      	ldr	r3, [sp, #4]
 800418a:	f8ca 3028 	str.w	r3, [sl, #40]	; 0x28
 800418e:	f8d4 a038 	ldr.w	sl, [r4, #56]	; 0x38
 8004192:	f8da 3028 	ldr.w	r3, [sl, #40]	; 0x28
 8004196:	3301      	adds	r3, #1
 8004198:	d110      	bne.n	80041bc <stm32_uart_open+0x104>
 800419a:	f8da 0024 	ldr.w	r0, [sl, #36]	; 0x24
 800419e:	f7ff ff73 	bl	8004088 <stream_destroy>
 80041a2:	6ba3      	ldr	r3, [r4, #56]	; 0x38
 80041a4:	6898      	ldr	r0, [r3, #8]
 80041a6:	f7ff ff69 	bl	800407c <stream_close>
 80041aa:	6ba3      	ldr	r3, [r4, #56]	; 0x38
 80041ac:	6858      	ldr	r0, [r3, #4]
 80041ae:	f7ff ff6b 	bl	8004088 <stream_destroy>
 80041b2:	6ba0      	ldr	r0, [r4, #56]	; 0x38
 80041b4:	f000 fbac 	bl	8004910 <free>
 80041b8:	63a5      	str	r5, [r4, #56]	; 0x38
 80041ba:	e050      	b.n	800425e <stm32_uart_open+0x1a6>
 80041bc:	462b      	mov	r3, r5
 80041be:	201b      	movs	r0, #27
 80041c0:	f8da 1024 	ldr.w	r1, [sl, #36]	; 0x24
 80041c4:	464a      	mov	r2, r9
 80041c6:	f7fc f863 	bl	8000290 <svc_call>
 80041ca:	9b01      	ldr	r3, [sp, #4]
 80041cc:	f8aa 302c 	strh.w	r3, [sl, #44]	; 0x2c
 80041d0:	4b24      	ldr	r3, [pc, #144]	; (8004264 <stm32_uart_open+0x1ac>)
 80041d2:	4a25      	ldr	r2, [pc, #148]	; (8004268 <stm32_uart_open+0x1b0>)
 80041d4:	b10f      	cbz	r7, 80041da <stm32_uart_open+0x122>
 80041d6:	2f05      	cmp	r7, #5
 80041d8:	d107      	bne.n	80041ea <stm32_uart_open+0x132>
 80041da:	f852 0027 	ldr.w	r0, [r2, r7, lsl #2]
 80041de:	6999      	ldr	r1, [r3, #24]
 80041e0:	2201      	movs	r2, #1
 80041e2:	4082      	lsls	r2, r0
 80041e4:	430a      	orrs	r2, r1
 80041e6:	619a      	str	r2, [r3, #24]
 80041e8:	e006      	b.n	80041f8 <stm32_uart_open+0x140>
 80041ea:	f852 0027 	ldr.w	r0, [r2, r7, lsl #2]
 80041ee:	69d9      	ldr	r1, [r3, #28]
 80041f0:	2201      	movs	r2, #1
 80041f2:	4082      	lsls	r2, r0
 80041f4:	430a      	orrs	r2, r1
 80041f6:	61da      	str	r2, [r3, #28]
 80041f8:	4b1c      	ldr	r3, [pc, #112]	; (800426c <stm32_uart_open+0x1b4>)
 80041fa:	f853 2027 	ldr.w	r2, [r3, r7, lsl #2]
 80041fe:	8993      	ldrh	r3, [r2, #12]
 8004200:	b29b      	uxth	r3, r3
 8004202:	f443 5300 	orr.w	r3, r3, #8192	; 0x2000
 8004206:	8193      	strh	r3, [r2, #12]
 8004208:	b126      	cbz	r6, 8004214 <stm32_uart_open+0x15c>
 800420a:	8993      	ldrh	r3, [r2, #12]
 800420c:	b29b      	uxth	r3, r3
 800420e:	f043 0324 	orr.w	r3, r3, #36	; 0x24
 8004212:	8193      	strh	r3, [r2, #12]
 8004214:	4b16      	ldr	r3, [pc, #88]	; (8004270 <stm32_uart_open+0x1b8>)
 8004216:	200a      	movs	r0, #10
 8004218:	f853 4027 	ldr.w	r4, [r3, r7, lsl #2]
 800421c:	4a15      	ldr	r2, [pc, #84]	; (8004274 <stm32_uart_open+0x1bc>)
 800421e:	4621      	mov	r1, r4
 8004220:	4643      	mov	r3, r8
 8004222:	f7fc f835 	bl	8000290 <svc_call>
 8004226:	b2e1      	uxtb	r1, r4
 8004228:	b24b      	sxtb	r3, r1
 800422a:	f001 001f 	and.w	r0, r1, #31
 800422e:	2201      	movs	r2, #1
 8004230:	2b00      	cmp	r3, #0
 8004232:	fa02 f200 	lsl.w	r2, r2, r0
 8004236:	4810      	ldr	r0, [pc, #64]	; (8004278 <stm32_uart_open+0x1c0>)
 8004238:	ea4f 1453 	mov.w	r4, r3, lsr #5
 800423c:	bfac      	ite	ge
 800423e:	f103 4360 	addge.w	r3, r3, #3758096384	; 0xe0000000
 8004242:	4b0e      	ldrlt	r3, [pc, #56]	; (800427c <stm32_uart_open+0x1c4>)
 8004244:	f840 2024 	str.w	r2, [r0, r4, lsl #2]
 8004248:	bfb9      	ittee	lt
 800424a:	f001 010f 	andlt.w	r1, r1, #15
 800424e:	22d0      	movlt	r2, #208	; 0xd0
 8004250:	f503 4361 	addge.w	r3, r3, #57600	; 0xe100
 8004254:	22d0      	movge	r2, #208	; 0xd0
 8004256:	bfb4      	ite	lt
 8004258:	545a      	strblt	r2, [r3, r1]
 800425a:	f883 2300 	strbge.w	r2, [r3, #768]	; 0x300
 800425e:	b002      	add	sp, #8
 8004260:	e8bd 87f0 	ldmia.w	sp!, {r4, r5, r6, r7, r8, r9, sl, pc}
 8004264:	40021000 	.word	0x40021000
 8004268:	08005760 	.word	0x08005760
 800426c:	0800576c 	.word	0x0800576c
 8004270:	08005754 	.word	0x08005754
 8004274:	08003f5d 	.word	0x08003f5d
 8004278:	e000e100 	.word	0xe000e100
 800427c:	e000ed14 	.word	0xe000ed14

08004280 <stm32_uart_write>:
 8004280:	e92d 41f3 	stmdb	sp!, {r0, r1, r4, r5, r6, r7, r8, lr}
 8004284:	460e      	mov	r6, r1
 8004286:	b122      	cbz	r2, 8004292 <stm32_uart_write+0x12>
 8004288:	f101 030e 	add.w	r3, r1, #14
 800428c:	f850 3023 	ldr.w	r3, [r0, r3, lsl #2]
 8004290:	819a      	strh	r2, [r3, #12]
 8004292:	eb00 0586 	add.w	r5, r0, r6, lsl #2
 8004296:	6bac      	ldr	r4, [r5, #56]	; 0x38
 8004298:	89a3      	ldrh	r3, [r4, #12]
 800429a:	b933      	cbnz	r3, 80042aa <stm32_uart_write+0x2a>
 800429c:	201a      	movs	r0, #26
 800429e:	6861      	ldr	r1, [r4, #4]
 80042a0:	aa01      	add	r2, sp, #4
 80042a2:	f7fb fff5 	bl	8000290 <svc_call>
 80042a6:	9b01      	ldr	r3, [sp, #4]
 80042a8:	81a3      	strh	r3, [r4, #12]
 80042aa:	6baf      	ldr	r7, [r5, #56]	; 0x38
 80042ac:	89bc      	ldrh	r4, [r7, #12]
 80042ae:	b30c      	cbz	r4, 80042f4 <stm32_uart_write+0x74>
 80042b0:	2c10      	cmp	r4, #16
 80042b2:	f8d7 8008 	ldr.w	r8, [r7, #8]
 80042b6:	bf28      	it	cs
 80042b8:	2410      	movcs	r4, #16
 80042ba:	2000      	movs	r0, #0
 80042bc:	f000 fadf 	bl	800487e <error>
 80042c0:	201f      	movs	r0, #31
 80042c2:	4641      	mov	r1, r8
 80042c4:	f107 0212 	add.w	r2, r7, #18
 80042c8:	4623      	mov	r3, r4
 80042ca:	f7fb ffe1 	bl	8000290 <svc_call>
 80042ce:	f000 fad1 	bl	8004874 <get_last_error>
 80042d2:	b998      	cbnz	r0, 80042fc <stm32_uart_write+0x7c>
 80042d4:	6bab      	ldr	r3, [r5, #56]	; 0x38
 80042d6:	b2a4      	uxth	r4, r4
 80042d8:	899a      	ldrh	r2, [r3, #12]
 80042da:	821c      	strh	r4, [r3, #16]
 80042dc:	1b14      	subs	r4, r2, r4
 80042de:	81d8      	strh	r0, [r3, #14]
 80042e0:	819c      	strh	r4, [r3, #12]
 80042e2:	4b08      	ldr	r3, [pc, #32]	; (8004304 <stm32_uart_write+0x84>)
 80042e4:	f853 2026 	ldr.w	r2, [r3, r6, lsl #2]
 80042e8:	8993      	ldrh	r3, [r2, #12]
 80042ea:	b29b      	uxth	r3, r3
 80042ec:	f043 0388 	orr.w	r3, r3, #136	; 0x88
 80042f0:	8193      	strh	r3, [r2, #12]
 80042f2:	e003      	b.n	80042fc <stm32_uart_write+0x7c>
 80042f4:	6878      	ldr	r0, [r7, #4]
 80042f6:	4631      	mov	r1, r6
 80042f8:	f7ff fecc 	bl	8004094 <stream_listen.constprop.3>
 80042fc:	b002      	add	sp, #8
 80042fe:	e8bd 81f0 	ldmia.w	sp!, {r4, r5, r6, r7, r8, pc}
 8004302:	bf00      	nop
 8004304:	0800576c 	.word	0x0800576c

08004308 <stm32_uart_request>:
 8004308:	b570      	push	{r4, r5, r6, lr}
 800430a:	7a0d      	ldrb	r5, [r1, #8]
 800430c:	b088      	sub	sp, #32
 800430e:	2d02      	cmp	r5, #2
 8004310:	4604      	mov	r4, r0
 8004312:	460e      	mov	r6, r1
 8004314:	d902      	bls.n	800431c <stm32_uart_request+0x14>
 8004316:	f06f 0006 	mvn.w	r0, #6
 800431a:	e185      	b.n	8004628 <stm32_uart_request+0x320>
 800431c:	684b      	ldr	r3, [r1, #4]
 800431e:	f3c3 030e 	ubfx	r3, r3, #0, #15
 8004322:	2b0b      	cmp	r3, #11
 8004324:	f000 8125 	beq.w	8004572 <stm32_uart_request+0x26a>
 8004328:	d80f      	bhi.n	800434a <stm32_uart_request+0x42>
 800432a:	2b08      	cmp	r3, #8
 800432c:	d02b      	beq.n	8004386 <stm32_uart_request+0x7e>
 800432e:	d806      	bhi.n	800433e <stm32_uart_request+0x36>
 8004330:	2b01      	cmp	r3, #1
 8004332:	f000 814e 	beq.w	80045d2 <stm32_uart_request+0x2ca>
 8004336:	2b06      	cmp	r3, #6
 8004338:	f000 80f6 	beq.w	8004528 <stm32_uart_request+0x220>
 800433c:	e172      	b.n	8004624 <stm32_uart_request+0x31c>
 800433e:	2b09      	cmp	r3, #9
 8004340:	d026      	beq.n	8004390 <stm32_uart_request+0x88>
 8004342:	2b0a      	cmp	r3, #10
 8004344:	f000 811b 	beq.w	800457e <stm32_uart_request+0x276>
 8004348:	e16c      	b.n	8004624 <stm32_uart_request+0x31c>
 800434a:	f240 1203 	movw	r2, #259	; 0x103
 800434e:	4293      	cmp	r3, r2
 8004350:	f000 812f 	beq.w	80045b2 <stm32_uart_request+0x2aa>
 8004354:	f5b3 7f82 	cmp.w	r3, #260	; 0x104
 8004358:	d207      	bcs.n	800436a <stm32_uart_request+0x62>
 800435a:	f5b3 7f80 	cmp.w	r3, #256	; 0x100
 800435e:	d06d      	beq.n	800443c <stm32_uart_request+0x134>
 8004360:	f5b3 7f81 	cmp.w	r3, #258	; 0x102
 8004364:	f000 8119 	beq.w	800459a <stm32_uart_request+0x292>
 8004368:	e15c      	b.n	8004624 <stm32_uart_request+0x31c>
 800436a:	f240 1205 	movw	r2, #261	; 0x105
 800436e:	4293      	cmp	r3, r2
 8004370:	f000 812f 	beq.w	80045d2 <stm32_uart_request+0x2ca>
 8004374:	f5b3 7f82 	cmp.w	r3, #260	; 0x104
 8004378:	f240 8124 	bls.w	80045c4 <stm32_uart_request+0x2bc>
 800437c:	f5b3 7f83 	cmp.w	r3, #262	; 0x106
 8004380:	f000 812d 	beq.w	80045de <stm32_uart_request+0x2d6>
 8004384:	e14e      	b.n	8004624 <stm32_uart_request+0x31c>
 8004386:	4629      	mov	r1, r5
 8004388:	68f2      	ldr	r2, [r6, #12]
 800438a:	f7ff fe95 	bl	80040b8 <stm32_uart_open>
 800438e:	e14d      	b.n	800462c <stm32_uart_request+0x324>
 8004390:	eb00 0485 	add.w	r4, r0, r5, lsl #2
 8004394:	6ba3      	ldr	r3, [r4, #56]	; 0x38
 8004396:	2b00      	cmp	r3, #0
 8004398:	d055      	beq.n	8004446 <stm32_uart_request+0x13e>
 800439a:	4ba5      	ldr	r3, [pc, #660]	; (8004630 <stm32_uart_request+0x328>)
 800439c:	2201      	movs	r2, #1
 800439e:	f853 1025 	ldr.w	r1, [r3, r5, lsl #2]
 80043a2:	4ea4      	ldr	r6, [pc, #656]	; (8004634 <stm32_uart_request+0x32c>)
 80043a4:	f001 001f 	and.w	r0, r1, #31
 80043a8:	b24b      	sxtb	r3, r1
 80043aa:	4082      	lsls	r2, r0
 80043ac:	095b      	lsrs	r3, r3, #5
 80043ae:	48a2      	ldr	r0, [pc, #648]	; (8004638 <stm32_uart_request+0x330>)
 80043b0:	3320      	adds	r3, #32
 80043b2:	f840 2023 	str.w	r2, [r0, r3, lsl #2]
 80043b6:	2200      	movs	r2, #0
 80043b8:	4613      	mov	r3, r2
 80043ba:	200b      	movs	r0, #11
 80043bc:	f7fb ff68 	bl	8000290 <svc_call>
 80043c0:	6ba2      	ldr	r2, [r4, #56]	; 0x38
 80043c2:	6a53      	ldr	r3, [r2, #36]	; 0x24
 80043c4:	3301      	adds	r3, #1
 80043c6:	d00e      	beq.n	80043e6 <stm32_uart_request+0xde>
 80043c8:	f856 1025 	ldr.w	r1, [r6, r5, lsl #2]
 80043cc:	6a90      	ldr	r0, [r2, #40]	; 0x28
 80043ce:	898b      	ldrh	r3, [r1, #12]
 80043d0:	f023 0324 	bic.w	r3, r3, #36	; 0x24
 80043d4:	041b      	lsls	r3, r3, #16
 80043d6:	0c1b      	lsrs	r3, r3, #16
 80043d8:	818b      	strh	r3, [r1, #12]
 80043da:	f7ff fe4f 	bl	800407c <stream_close>
 80043de:	6ba3      	ldr	r3, [r4, #56]	; 0x38
 80043e0:	6a58      	ldr	r0, [r3, #36]	; 0x24
 80043e2:	f7ff fe51 	bl	8004088 <stream_destroy>
 80043e6:	6ba3      	ldr	r3, [r4, #56]	; 0x38
 80043e8:	685a      	ldr	r2, [r3, #4]
 80043ea:	3201      	adds	r2, #1
 80043ec:	d006      	beq.n	80043fc <stm32_uart_request+0xf4>
 80043ee:	6898      	ldr	r0, [r3, #8]
 80043f0:	f7ff fe44 	bl	800407c <stream_close>
 80043f4:	6ba3      	ldr	r3, [r4, #56]	; 0x38
 80043f6:	6858      	ldr	r0, [r3, #4]
 80043f8:	f7ff fe46 	bl	8004088 <stream_destroy>
 80043fc:	f856 2025 	ldr.w	r2, [r6, r5, lsl #2]
 8004400:	488e      	ldr	r0, [pc, #568]	; (800463c <stm32_uart_request+0x334>)
 8004402:	8993      	ldrh	r3, [r2, #12]
 8004404:	f423 5300 	bic.w	r3, r3, #8192	; 0x2000
 8004408:	041b      	lsls	r3, r3, #16
 800440a:	0c1b      	lsrs	r3, r3, #16
 800440c:	8193      	strh	r3, [r2, #12]
 800440e:	2301      	movs	r3, #1
 8004410:	4a8b      	ldr	r2, [pc, #556]	; (8004640 <stm32_uart_request+0x338>)
 8004412:	b935      	cbnz	r5, 8004422 <stm32_uart_request+0x11a>
 8004414:	6800      	ldr	r0, [r0, #0]
 8004416:	6991      	ldr	r1, [r2, #24]
 8004418:	4083      	lsls	r3, r0
 800441a:	ea21 0303 	bic.w	r3, r1, r3
 800441e:	6193      	str	r3, [r2, #24]
 8004420:	e006      	b.n	8004430 <stm32_uart_request+0x128>
 8004422:	f850 0025 	ldr.w	r0, [r0, r5, lsl #2]
 8004426:	69d1      	ldr	r1, [r2, #28]
 8004428:	4083      	lsls	r3, r0
 800442a:	ea21 0303 	bic.w	r3, r1, r3
 800442e:	61d3      	str	r3, [r2, #28]
 8004430:	6ba0      	ldr	r0, [r4, #56]	; 0x38
 8004432:	f000 fa6d 	bl	8004910 <free>
 8004436:	2300      	movs	r3, #0
 8004438:	63a3      	str	r3, [r4, #56]	; 0x38
 800443a:	e0f7      	b.n	800462c <stm32_uart_request+0x324>
 800443c:	f105 030e 	add.w	r3, r5, #14
 8004440:	f850 3023 	ldr.w	r3, [r0, r3, lsl #2]
 8004444:	b913      	cbnz	r3, 800444c <stm32_uart_request+0x144>
 8004446:	f06f 0003 	mvn.w	r0, #3
 800444a:	e0ed      	b.n	8004628 <stm32_uart_request+0x320>
 800444c:	4608      	mov	r0, r1
 800444e:	a901      	add	r1, sp, #4
 8004450:	f000 fadc 	bl	8004a0c <uart_decode_baudrate>
 8004454:	4b77      	ldr	r3, [pc, #476]	; (8004634 <stm32_uart_request+0x32c>)
 8004456:	f853 6025 	ldr.w	r6, [r3, r5, lsl #2]
 800445a:	89b3      	ldrh	r3, [r6, #12]
 800445c:	f423 5300 	bic.w	r3, r3, #8192	; 0x2000
 8004460:	041b      	lsls	r3, r3, #16
 8004462:	0c1b      	lsrs	r3, r3, #16
 8004464:	81b3      	strh	r3, [r6, #12]
 8004466:	f89d 3008 	ldrb.w	r3, [sp, #8]
 800446a:	2b08      	cmp	r3, #8
 800446c:	d108      	bne.n	8004480 <stm32_uart_request+0x178>
 800446e:	f89d 3009 	ldrb.w	r3, [sp, #9]
 8004472:	2b4e      	cmp	r3, #78	; 0x4e
 8004474:	d004      	beq.n	8004480 <stm32_uart_request+0x178>
 8004476:	89b3      	ldrh	r3, [r6, #12]
 8004478:	b29b      	uxth	r3, r3
 800447a:	f443 5380 	orr.w	r3, r3, #4096	; 0x1000
 800447e:	e004      	b.n	800448a <stm32_uart_request+0x182>
 8004480:	89b3      	ldrh	r3, [r6, #12]
 8004482:	f423 5380 	bic.w	r3, r3, #4096	; 0x1000
 8004486:	041b      	lsls	r3, r3, #16
 8004488:	0c1b      	lsrs	r3, r3, #16
 800448a:	81b3      	strh	r3, [r6, #12]
 800448c:	f89d 2009 	ldrb.w	r2, [sp, #9]
 8004490:	89b3      	ldrh	r3, [r6, #12]
 8004492:	2a4e      	cmp	r2, #78	; 0x4e
 8004494:	d00d      	beq.n	80044b2 <stm32_uart_request+0x1aa>
 8004496:	b29b      	uxth	r3, r3
 8004498:	f443 6380 	orr.w	r3, r3, #1024	; 0x400
 800449c:	81b3      	strh	r3, [r6, #12]
 800449e:	2a4f      	cmp	r2, #79	; 0x4f
 80044a0:	89b3      	ldrh	r3, [r6, #12]
 80044a2:	d103      	bne.n	80044ac <stm32_uart_request+0x1a4>
 80044a4:	b29b      	uxth	r3, r3
 80044a6:	f443 7300 	orr.w	r3, r3, #512	; 0x200
 80044aa:	e006      	b.n	80044ba <stm32_uart_request+0x1b2>
 80044ac:	f423 7300 	bic.w	r3, r3, #512	; 0x200
 80044b0:	e001      	b.n	80044b6 <stm32_uart_request+0x1ae>
 80044b2:	f423 6380 	bic.w	r3, r3, #1024	; 0x400
 80044b6:	041b      	lsls	r3, r3, #16
 80044b8:	0c1b      	lsrs	r3, r3, #16
 80044ba:	81b3      	strh	r3, [r6, #12]
 80044bc:	f89d 300a 	ldrb.w	r3, [sp, #10]
 80044c0:	2b01      	cmp	r3, #1
 80044c2:	bf0c      	ite	eq
 80044c4:	2300      	moveq	r3, #0
 80044c6:	f44f 5300 	movne.w	r3, #8192	; 0x2000
 80044ca:	8233      	strh	r3, [r6, #16]
 80044cc:	2300      	movs	r3, #0
 80044ce:	82b3      	strh	r3, [r6, #20]
 80044d0:	4b5c      	ldr	r3, [pc, #368]	; (8004644 <stm32_uart_request+0x33c>)
 80044d2:	9304      	str	r3, [sp, #16]
 80044d4:	b90d      	cbnz	r5, 80044da <stm32_uart_request+0x1d2>
 80044d6:	2303      	movs	r3, #3
 80044d8:	e000      	b.n	80044dc <stm32_uart_request+0x1d4>
 80044da:	2302      	movs	r3, #2
 80044dc:	a903      	add	r1, sp, #12
 80044de:	4620      	mov	r0, r4
 80044e0:	9305      	str	r3, [sp, #20]
 80044e2:	f7ff f90b 	bl	80036fc <stm32_power_request>
 80044e6:	9a06      	ldr	r2, [sp, #24]
 80044e8:	2319      	movs	r3, #25
 80044ea:	fb03 f102 	mul.w	r1, r3, r2
 80044ee:	9a01      	ldr	r2, [sp, #4]
 80044f0:	2364      	movs	r3, #100	; 0x64
 80044f2:	0092      	lsls	r2, r2, #2
 80044f4:	fbb1 f2f2 	udiv	r2, r1, r2
 80044f8:	fbb2 f1f3 	udiv	r1, r2, r3
 80044fc:	fb03 2211 	mls	r2, r3, r1, r2
 8004500:	00d2      	lsls	r2, r2, #3
 8004502:	3219      	adds	r2, #25
 8004504:	2332      	movs	r3, #50	; 0x32
 8004506:	fbb2 f3f3 	udiv	r3, r2, r3
 800450a:	ea43 1301 	orr.w	r3, r3, r1, lsl #4
 800450e:	b29b      	uxth	r3, r3
 8004510:	8133      	strh	r3, [r6, #8]
 8004512:	89b3      	ldrh	r3, [r6, #12]
 8004514:	b29b      	uxth	r3, r3
 8004516:	f443 5304 	orr.w	r3, r3, #8448	; 0x2100
 800451a:	81b3      	strh	r3, [r6, #12]
 800451c:	8ab3      	ldrh	r3, [r6, #20]
 800451e:	b29b      	uxth	r3, r3
 8004520:	f043 0301 	orr.w	r3, r3, #1
 8004524:	82b3      	strh	r3, [r6, #20]
 8004526:	e081      	b.n	800462c <stm32_uart_request+0x324>
 8004528:	eb00 0485 	add.w	r4, r0, r5, lsl #2
 800452c:	6ba3      	ldr	r3, [r4, #56]	; 0x38
 800452e:	2b00      	cmp	r3, #0
 8004530:	d089      	beq.n	8004446 <stm32_uart_request+0x13e>
 8004532:	6859      	ldr	r1, [r3, #4]
 8004534:	1c4a      	adds	r2, r1, #1
 8004536:	d011      	beq.n	800455c <stm32_uart_request+0x254>
 8004538:	2200      	movs	r2, #0
 800453a:	4613      	mov	r3, r2
 800453c:	2020      	movs	r0, #32
 800453e:	f7fb fea7 	bl	8000290 <svc_call>
 8004542:	6ba3      	ldr	r3, [r4, #56]	; 0x38
 8004544:	4629      	mov	r1, r5
 8004546:	6858      	ldr	r0, [r3, #4]
 8004548:	f7ff fda4 	bl	8004094 <stream_listen.constprop.3>
 800454c:	6ba2      	ldr	r2, [r4, #56]	; 0x38
 800454e:	2300      	movs	r3, #0
 8004550:	8193      	strh	r3, [r2, #12]
 8004552:	b672      	cpsid	i
 8004554:	6ba2      	ldr	r2, [r4, #56]	; 0x38
 8004556:	8213      	strh	r3, [r2, #16]
 8004558:	81d3      	strh	r3, [r2, #14]
 800455a:	b662      	cpsie	i
 800455c:	6ba3      	ldr	r3, [r4, #56]	; 0x38
 800455e:	6a59      	ldr	r1, [r3, #36]	; 0x24
 8004560:	1c4b      	adds	r3, r1, #1
 8004562:	d004      	beq.n	800456e <stm32_uart_request+0x266>
 8004564:	2200      	movs	r2, #0
 8004566:	2020      	movs	r0, #32
 8004568:	4613      	mov	r3, r2
 800456a:	f7fb fe91 	bl	8000290 <svc_call>
 800456e:	6ba3      	ldr	r3, [r4, #56]	; 0x38
 8004570:	e025      	b.n	80045be <stm32_uart_request+0x2b6>
 8004572:	350e      	adds	r5, #14
 8004574:	f850 3025 	ldr.w	r3, [r0, r5, lsl #2]
 8004578:	b12b      	cbz	r3, 8004586 <stm32_uart_request+0x27e>
 800457a:	685b      	ldr	r3, [r3, #4]
 800457c:	e00b      	b.n	8004596 <stm32_uart_request+0x28e>
 800457e:	350e      	adds	r5, #14
 8004580:	f850 3025 	ldr.w	r3, [r0, r5, lsl #2]
 8004584:	b933      	cbnz	r3, 8004594 <stm32_uart_request+0x28c>
 8004586:	f06f 0003 	mvn.w	r0, #3
 800458a:	f000 f978 	bl	800487e <error>
 800458e:	f04f 33ff 	mov.w	r3, #4294967295
 8004592:	e000      	b.n	8004596 <stm32_uart_request+0x28e>
 8004594:	6a5b      	ldr	r3, [r3, #36]	; 0x24
 8004596:	60f3      	str	r3, [r6, #12]
 8004598:	e048      	b.n	800462c <stm32_uart_request+0x324>
 800459a:	350e      	adds	r5, #14
 800459c:	f850 4025 	ldr.w	r4, [r0, r5, lsl #2]
 80045a0:	b924      	cbnz	r4, 80045ac <stm32_uart_request+0x2a4>
 80045a2:	f06f 0003 	mvn.w	r0, #3
 80045a6:	f000 f96a 	bl	800487e <error>
 80045aa:	e000      	b.n	80045ae <stm32_uart_request+0x2a6>
 80045ac:	8824      	ldrh	r4, [r4, #0]
 80045ae:	60f4      	str	r4, [r6, #12]
 80045b0:	e03c      	b.n	800462c <stm32_uart_request+0x324>
 80045b2:	350e      	adds	r5, #14
 80045b4:	f850 3025 	ldr.w	r3, [r0, r5, lsl #2]
 80045b8:	2b00      	cmp	r3, #0
 80045ba:	f43f af44 	beq.w	8004446 <stm32_uart_request+0x13e>
 80045be:	2200      	movs	r2, #0
 80045c0:	801a      	strh	r2, [r3, #0]
 80045c2:	e033      	b.n	800462c <stm32_uart_request+0x324>
 80045c4:	2031      	movs	r0, #49	; 0x31
 80045c6:	4920      	ldr	r1, [pc, #128]	; (8004648 <stm32_uart_request+0x340>)
 80045c8:	462a      	mov	r2, r5
 80045ca:	2300      	movs	r3, #0
 80045cc:	f7fb fe60 	bl	8000290 <svc_call>
 80045d0:	e02c      	b.n	800462c <stm32_uart_request+0x324>
 80045d2:	4620      	mov	r0, r4
 80045d4:	4629      	mov	r1, r5
 80045d6:	6932      	ldr	r2, [r6, #16]
 80045d8:	f7ff fe52 	bl	8004280 <stm32_uart_write>
 80045dc:	e026      	b.n	800462c <stm32_uart_request+0x324>
 80045de:	690b      	ldr	r3, [r1, #16]
 80045e0:	eb00 0485 	add.w	r4, r0, r5, lsl #2
 80045e4:	6ba5      	ldr	r5, [r4, #56]	; 0x38
 80045e6:	f88d 3004 	strb.w	r3, [sp, #4]
 80045ea:	8dab      	ldrh	r3, [r5, #44]	; 0x2c
 80045ec:	b933      	cbnz	r3, 80045fc <stm32_uart_request+0x2f4>
 80045ee:	201b      	movs	r0, #27
 80045f0:	6a69      	ldr	r1, [r5, #36]	; 0x24
 80045f2:	aa03      	add	r2, sp, #12
 80045f4:	f7fb fe4c 	bl	8000290 <svc_call>
 80045f8:	9b03      	ldr	r3, [sp, #12]
 80045fa:	85ab      	strh	r3, [r5, #44]	; 0x2c
 80045fc:	6ba3      	ldr	r3, [r4, #56]	; 0x38
 80045fe:	8d9a      	ldrh	r2, [r3, #44]	; 0x2c
 8004600:	b1a2      	cbz	r2, 800462c <stm32_uart_request+0x324>
 8004602:	6a9d      	ldr	r5, [r3, #40]	; 0x28
 8004604:	2000      	movs	r0, #0
 8004606:	f000 f93a 	bl	800487e <error>
 800460a:	aa01      	add	r2, sp, #4
 800460c:	2301      	movs	r3, #1
 800460e:	201e      	movs	r0, #30
 8004610:	4629      	mov	r1, r5
 8004612:	f7fb fe3d 	bl	8000290 <svc_call>
 8004616:	f000 f92d 	bl	8004874 <get_last_error>
 800461a:	6ba2      	ldr	r2, [r4, #56]	; 0x38
 800461c:	8d93      	ldrh	r3, [r2, #44]	; 0x2c
 800461e:	3b01      	subs	r3, #1
 8004620:	8593      	strh	r3, [r2, #44]	; 0x2c
 8004622:	e003      	b.n	800462c <stm32_uart_request+0x324>
 8004624:	f06f 0001 	mvn.w	r0, #1
 8004628:	f000 f929 	bl	800487e <error>
 800462c:	b008      	add	sp, #32
 800462e:	bd70      	pop	{r4, r5, r6, pc}
 8004630:	08005754 	.word	0x08005754
 8004634:	0800576c 	.word	0x0800576c
 8004638:	e000e100 	.word	0xe000e100
 800463c:	08005760 	.word	0x08005760
 8004640:	40021000 	.word	0x40021000
 8004644:	80020102 	.word	0x80020102
 8004648:	08003ef9 	.word	0x08003ef9

0800464c <stm32_uart_init>:
 800464c:	2300      	movs	r3, #0
 800464e:	6383      	str	r3, [r0, #56]	; 0x38
 8004650:	63c3      	str	r3, [r0, #60]	; 0x3c
 8004652:	6403      	str	r3, [r0, #64]	; 0x40
 8004654:	4770      	bx	lr

08004656 <ipc_index>:
 8004656:	f04f 5300 	mov.w	r3, #536870912	; 0x20000000
 800465a:	b5f0      	push	{r4, r5, r6, r7, lr}
 800465c:	681c      	ldr	r4, [r3, #0]
 800465e:	f8d4 e01c 	ldr.w	lr, [r4, #28]
 8004662:	6a23      	ldr	r3, [r4, #32]
 8004664:	4573      	cmp	r3, lr
 8004666:	d01b      	beq.n	80046a0 <ipc_index+0x4a>
 8004668:	2514      	movs	r5, #20
 800466a:	435d      	muls	r5, r3
 800466c:	f104 0628 	add.w	r6, r4, #40	; 0x28
 8004670:	1977      	adds	r7, r6, r5
 8004672:	5975      	ldr	r5, [r6, r5]
 8004674:	4285      	cmp	r5, r0
 8004676:	d001      	beq.n	800467c <ipc_index+0x26>
 8004678:	1c85      	adds	r5, r0, #2
 800467a:	d109      	bne.n	8004690 <ipc_index+0x3a>
 800467c:	687d      	ldr	r5, [r7, #4]
 800467e:	428d      	cmp	r5, r1
 8004680:	d001      	beq.n	8004686 <ipc_index+0x30>
 8004682:	1c4e      	adds	r6, r1, #1
 8004684:	d104      	bne.n	8004690 <ipc_index+0x3a>
 8004686:	68bd      	ldr	r5, [r7, #8]
 8004688:	4295      	cmp	r5, r2
 800468a:	d00c      	beq.n	80046a6 <ipc_index+0x50>
 800468c:	1c95      	adds	r5, r2, #2
 800468e:	d00a      	beq.n	80046a6 <ipc_index+0x50>
 8004690:	6a66      	ldr	r6, [r4, #36]	; 0x24
 8004692:	1c5d      	adds	r5, r3, #1
 8004694:	42b5      	cmp	r5, r6
 8004696:	f04f 0300 	mov.w	r3, #0
 800469a:	bf38      	it	cc
 800469c:	462b      	movcc	r3, r5
 800469e:	e7e1      	b.n	8004664 <ipc_index+0xe>
 80046a0:	f04f 30ff 	mov.w	r0, #4294967295
 80046a4:	bdf0      	pop	{r4, r5, r6, r7, pc}
 80046a6:	4618      	mov	r0, r3
 80046a8:	bdf0      	pop	{r4, r5, r6, r7, pc}

080046aa <ipc_peek>:
 80046aa:	e92d 41f0 	stmdb	sp!, {r4, r5, r6, r7, r8, lr}
 80046ae:	4604      	mov	r4, r0
 80046b0:	460e      	mov	r6, r1
 80046b2:	b086      	sub	sp, #24
 80046b4:	f04f 5800 	mov.w	r8, #536870912	; 0x20000000
 80046b8:	f8d8 1000 	ldr.w	r1, [r8]
 80046bc:	2714      	movs	r7, #20
 80046be:	6a0b      	ldr	r3, [r1, #32]
 80046c0:	429c      	cmp	r4, r3
 80046c2:	d02f      	beq.n	8004724 <ipc_peek+0x7a>
 80046c4:	fb07 f504 	mul.w	r5, r7, r4
 80046c8:	3128      	adds	r1, #40	; 0x28
 80046ca:	4429      	add	r1, r5
 80046cc:	463a      	mov	r2, r7
 80046ce:	a801      	add	r0, sp, #4
 80046d0:	f000 fa78 	bl	8004bc4 <memcpy>
 80046d4:	f8d8 3000 	ldr.w	r3, [r8]
 80046d8:	2c00      	cmp	r4, #0
 80046da:	f103 0128 	add.w	r1, r3, #40	; 0x28
 80046de:	bfd7      	itett	le
 80046e0:	6a5b      	ldrle	r3, [r3, #36]	; 0x24
 80046e2:	f1a5 0314 	subgt.w	r3, r5, #20
 80046e6:	437b      	mulle	r3, r7
 80046e8:	3b14      	suble	r3, #20
 80046ea:	1868      	adds	r0, r5, r1
 80046ec:	2214      	movs	r2, #20
 80046ee:	4419      	add	r1, r3
 80046f0:	f000 fa68 	bl	8004bc4 <memcpy>
 80046f4:	f04f 5300 	mov.w	r3, #536870912	; 0x20000000
 80046f8:	681a      	ldr	r2, [r3, #0]
 80046fa:	2c00      	cmp	r4, #0
 80046fc:	bfde      	ittt	le
 80046fe:	6a55      	ldrle	r5, [r2, #36]	; 0x24
 8004700:	2314      	movle	r3, #20
 8004702:	435d      	mulle	r5, r3
 8004704:	f102 0028 	add.w	r0, r2, #40	; 0x28
 8004708:	3d14      	subs	r5, #20
 800470a:	4428      	add	r0, r5
 800470c:	a901      	add	r1, sp, #4
 800470e:	2214      	movs	r2, #20
 8004710:	f000 fa58 	bl	8004bc4 <memcpy>
 8004714:	2c00      	cmp	r4, #0
 8004716:	bfde      	ittt	le
 8004718:	f04f 5300 	movle.w	r3, #536870912	; 0x20000000
 800471c:	681b      	ldrle	r3, [r3, #0]
 800471e:	6a5c      	ldrle	r4, [r3, #36]	; 0x24
 8004720:	3c01      	subs	r4, #1
 8004722:	e7c7      	b.n	80046b4 <ipc_peek+0xa>
 8004724:	fb07 1104 	mla	r1, r7, r4, r1
 8004728:	463a      	mov	r2, r7
 800472a:	4630      	mov	r0, r6
 800472c:	3128      	adds	r1, #40	; 0x28
 800472e:	f000 fa49 	bl	8004bc4 <memcpy>
 8004732:	f8d8 2000 	ldr.w	r2, [r8]
 8004736:	4630      	mov	r0, r6
 8004738:	6a13      	ldr	r3, [r2, #32]
 800473a:	6a51      	ldr	r1, [r2, #36]	; 0x24
 800473c:	3301      	adds	r3, #1
 800473e:	428b      	cmp	r3, r1
 8004740:	bf28      	it	cs
 8004742:	2300      	movcs	r3, #0
 8004744:	6213      	str	r3, [r2, #32]
 8004746:	b006      	add	sp, #24
 8004748:	e8bd 81f0 	ldmia.w	sp!, {r4, r5, r6, r7, r8, pc}

0800474c <ipc_ipost>:
 800474c:	b510      	push	{r4, lr}
 800474e:	f04f 5300 	mov.w	r3, #536870912	; 0x20000000
 8004752:	685c      	ldr	r4, [r3, #4]
 8004754:	2200      	movs	r2, #0
 8004756:	4601      	mov	r1, r0
 8004758:	46a4      	mov	ip, r4
 800475a:	e8bd 4010 	ldmia.w	sp!, {r4, lr}
 800475e:	2014      	movs	r0, #20
 8004760:	4613      	mov	r3, r2
 8004762:	4760      	bx	ip

08004764 <ipc_write>:
 8004764:	6843      	ldr	r3, [r0, #4]
 8004766:	b510      	push	{r4, lr}
 8004768:	2b00      	cmp	r3, #0
 800476a:	4604      	mov	r4, r0
 800476c:	da12      	bge.n	8004794 <ipc_write+0x30>
 800476e:	f023 4300 	bic.w	r3, r3, #2147483648	; 0x80000000
 8004772:	6043      	str	r3, [r0, #4]
 8004774:	f000 f87e 	bl	8004874 <get_last_error>
 8004778:	b120      	cbz	r0, 8004784 <ipc_write+0x20>
 800477a:	2801      	cmp	r0, #1
 800477c:	d00a      	beq.n	8004794 <ipc_write+0x30>
 800477e:	f000 f879 	bl	8004874 <get_last_error>
 8004782:	6120      	str	r0, [r4, #16]
 8004784:	2200      	movs	r2, #0
 8004786:	4621      	mov	r1, r4
 8004788:	e8bd 4010 	ldmia.w	sp!, {r4, lr}
 800478c:	2014      	movs	r0, #20
 800478e:	4613      	mov	r3, r2
 8004790:	f7fb bd7e 	b.w	8000290 <svc_call>
 8004794:	bd10      	pop	{r4, pc}

08004796 <ipc_read>:
 8004796:	b510      	push	{r4, lr}
 8004798:	4604      	mov	r4, r0
 800479a:	2000      	movs	r0, #0
 800479c:	f000 f86f 	bl	800487e <error>
 80047a0:	f04f 5300 	mov.w	r3, #536870912	; 0x20000000
 80047a4:	681b      	ldr	r3, [r3, #0]
 80047a6:	69da      	ldr	r2, [r3, #28]
 80047a8:	6a1b      	ldr	r3, [r3, #32]
 80047aa:	429a      	cmp	r2, r3
 80047ac:	d107      	bne.n	80047be <ipc_read+0x28>
 80047ae:	f06f 0101 	mvn.w	r1, #1
 80047b2:	2015      	movs	r0, #21
 80047b4:	f04f 32ff 	mov.w	r2, #4294967295
 80047b8:	460b      	mov	r3, r1
 80047ba:	f7fb fd69 	bl	8000290 <svc_call>
 80047be:	f04f 5300 	mov.w	r3, #536870912	; 0x20000000
 80047c2:	681b      	ldr	r3, [r3, #0]
 80047c4:	4621      	mov	r1, r4
 80047c6:	6a18      	ldr	r0, [r3, #32]
 80047c8:	f7ff ff6f 	bl	80046aa <ipc_peek>
 80047cc:	6863      	ldr	r3, [r4, #4]
 80047ce:	f1b3 4f00 	cmp.w	r3, #2147483648	; 0x80000000
 80047d2:	d103      	bne.n	80047dc <ipc_read+0x46>
 80047d4:	4620      	mov	r0, r4
 80047d6:	f7ff ffc5 	bl	8004764 <ipc_write>
 80047da:	e7de      	b.n	800479a <ipc_read+0x4>
 80047dc:	bd10      	pop	{r4, pc}

080047de <call>:
 80047de:	b510      	push	{r4, lr}
 80047e0:	4604      	mov	r4, r0
 80047e2:	2200      	movs	r2, #0
 80047e4:	4621      	mov	r1, r4
 80047e6:	4613      	mov	r3, r2
 80047e8:	2016      	movs	r0, #22
 80047ea:	f7fb fd51 	bl	8000290 <svc_call>
 80047ee:	e894 0003 	ldmia.w	r4, {r0, r1}
 80047f2:	68a2      	ldr	r2, [r4, #8]
 80047f4:	f021 4100 	bic.w	r1, r1, #2147483648	; 0x80000000
 80047f8:	f7ff ff2d 	bl	8004656 <ipc_index>
 80047fc:	4621      	mov	r1, r4
 80047fe:	e8bd 4010 	ldmia.w	sp!, {r4, lr}
 8004802:	f7ff bf52 	b.w	80046aa <ipc_peek>

08004806 <ack>:
 8004806:	b57f      	push	{r0, r1, r2, r3, r4, r5, r6, lr}
 8004808:	9304      	str	r3, [sp, #16]
 800480a:	9b08      	ldr	r3, [sp, #32]
 800480c:	9001      	str	r0, [sp, #4]
 800480e:	a801      	add	r0, sp, #4
 8004810:	9102      	str	r1, [sp, #8]
 8004812:	9203      	str	r2, [sp, #12]
 8004814:	9305      	str	r3, [sp, #20]
 8004816:	f7ff ffe2 	bl	80047de <call>
 800481a:	b007      	add	sp, #28
 800481c:	f85d fb04 	ldr.w	pc, [sp], #4

08004820 <get_handle>:
 8004820:	b57f      	push	{r0, r1, r2, r3, r4, r5, r6, lr}
 8004822:	9304      	str	r3, [sp, #16]
 8004824:	9b08      	ldr	r3, [sp, #32]
 8004826:	9001      	str	r0, [sp, #4]
 8004828:	a801      	add	r0, sp, #4
 800482a:	9305      	str	r3, [sp, #20]
 800482c:	9102      	str	r1, [sp, #8]
 800482e:	9203      	str	r2, [sp, #12]
 8004830:	f7ff ffd5 	bl	80047de <call>
 8004834:	9b04      	ldr	r3, [sp, #16]
 8004836:	3301      	adds	r3, #1
 8004838:	d102      	bne.n	8004840 <get_handle+0x20>
 800483a:	9805      	ldr	r0, [sp, #20]
 800483c:	f000 f81f 	bl	800487e <error>
 8004840:	9804      	ldr	r0, [sp, #16]
 8004842:	b007      	add	sp, #28
 8004844:	f85d fb04 	ldr.w	pc, [sp], #4

08004848 <process_create>:
 8004848:	b507      	push	{r0, r1, r2, lr}
 800484a:	4601      	mov	r1, r0
 800484c:	2000      	movs	r0, #0
 800484e:	4603      	mov	r3, r0
 8004850:	aa01      	add	r2, sp, #4
 8004852:	f7fb fd1d 	bl	8000290 <svc_call>
 8004856:	9801      	ldr	r0, [sp, #4]
 8004858:	b003      	add	sp, #12
 800485a:	f85d fb04 	ldr.w	pc, [sp], #4

0800485e <process_get_current>:
 800485e:	b507      	push	{r0, r1, r2, lr}
 8004860:	2200      	movs	r2, #0
 8004862:	2001      	movs	r0, #1
 8004864:	a901      	add	r1, sp, #4
 8004866:	4613      	mov	r3, r2
 8004868:	f7fb fd12 	bl	8000290 <svc_call>
 800486c:	9801      	ldr	r0, [sp, #4]
 800486e:	b003      	add	sp, #12
 8004870:	f85d fb04 	ldr.w	pc, [sp], #4

08004874 <get_last_error>:
 8004874:	f04f 5300 	mov.w	r3, #536870912	; 0x20000000
 8004878:	681b      	ldr	r3, [r3, #0]
 800487a:	6818      	ldr	r0, [r3, #0]
 800487c:	4770      	bx	lr

0800487e <error>:
 800487e:	f04f 5300 	mov.w	r3, #536870912	; 0x20000000
 8004882:	681b      	ldr	r3, [r3, #0]
 8004884:	6018      	str	r0, [r3, #0]
 8004886:	4770      	bx	lr

08004888 <process_iget_current>:
 8004888:	b513      	push	{r0, r1, r4, lr}
 800488a:	2200      	movs	r2, #0
 800488c:	f04f 5300 	mov.w	r3, #536870912	; 0x20000000
 8004890:	685c      	ldr	r4, [r3, #4]
 8004892:	2001      	movs	r0, #1
 8004894:	a901      	add	r1, sp, #4
 8004896:	4613      	mov	r3, r2
 8004898:	47a0      	blx	r4
 800489a:	9801      	ldr	r0, [sp, #4]
 800489c:	b002      	add	sp, #8
 800489e:	bd10      	pop	{r4, pc}

080048a0 <format>:
 80048a0:	b510      	push	{r4, lr}
 80048a2:	f04f 5400 	mov.w	r4, #536870912	; 0x20000000
 80048a6:	68a4      	ldr	r4, [r4, #8]
 80048a8:	6864      	ldr	r4, [r4, #4]
 80048aa:	6824      	ldr	r4, [r4, #0]
 80048ac:	46a4      	mov	ip, r4
 80048ae:	e8bd 4010 	ldmia.w	sp!, {r4, lr}
 80048b2:	4760      	bx	ip

080048b4 <printf>:
 80048b4:	b40f      	push	{r0, r1, r2, r3}
 80048b6:	b507      	push	{r0, r1, r2, lr}
 80048b8:	a904      	add	r1, sp, #16
 80048ba:	f851 0b04 	ldr.w	r0, [r1], #4
 80048be:	f04f 5300 	mov.w	r3, #536870912	; 0x20000000
 80048c2:	9101      	str	r1, [sp, #4]
 80048c4:	689b      	ldr	r3, [r3, #8]
 80048c6:	685b      	ldr	r3, [r3, #4]
 80048c8:	685b      	ldr	r3, [r3, #4]
 80048ca:	4798      	blx	r3
 80048cc:	b003      	add	sp, #12
 80048ce:	f85d eb04 	ldr.w	lr, [sp], #4
 80048d2:	b004      	add	sp, #16
 80048d4:	4770      	bx	lr

080048d6 <malloc>:
 80048d6:	b510      	push	{r4, lr}
 80048d8:	4601      	mov	r1, r0
 80048da:	466a      	mov	r2, sp
 80048dc:	f04f 5300 	mov.w	r3, #536870912	; 0x20000000
 80048e0:	6898      	ldr	r0, [r3, #8]
 80048e2:	6804      	ldr	r4, [r0, #0]
 80048e4:	6818      	ldr	r0, [r3, #0]
 80048e6:	68e3      	ldr	r3, [r4, #12]
 80048e8:	3004      	adds	r0, #4
 80048ea:	e8bd 4010 	ldmia.w	sp!, {r4, lr}
 80048ee:	4718      	bx	r3

080048f0 <realloc>:
 80048f0:	b530      	push	{r4, r5, lr}
 80048f2:	460a      	mov	r2, r1
 80048f4:	4605      	mov	r5, r0
 80048f6:	466b      	mov	r3, sp
 80048f8:	f04f 5100 	mov.w	r1, #536870912	; 0x20000000
 80048fc:	6888      	ldr	r0, [r1, #8]
 80048fe:	6804      	ldr	r4, [r0, #0]
 8004900:	6808      	ldr	r0, [r1, #0]
 8004902:	6964      	ldr	r4, [r4, #20]
 8004904:	4629      	mov	r1, r5
 8004906:	46a4      	mov	ip, r4
 8004908:	e8bd 4030 	ldmia.w	sp!, {r4, r5, lr}
 800490c:	3004      	adds	r0, #4
 800490e:	4760      	bx	ip

08004910 <free>:
 8004910:	f04f 5300 	mov.w	r3, #536870912	; 0x20000000
 8004914:	689a      	ldr	r2, [r3, #8]
 8004916:	4601      	mov	r1, r0
 8004918:	6812      	ldr	r2, [r2, #0]
 800491a:	6818      	ldr	r0, [r3, #0]
 800491c:	6993      	ldr	r3, [r2, #24]
 800491e:	3004      	adds	r0, #4
 8004920:	4718      	bx	r3

08004922 <systime_compare>:
 8004922:	f04f 5300 	mov.w	r3, #536870912	; 0x20000000
 8004926:	689b      	ldr	r3, [r3, #8]
 8004928:	689b      	ldr	r3, [r3, #8]
 800492a:	681b      	ldr	r3, [r3, #0]
 800492c:	4718      	bx	r3

0800492e <systime_add>:
 800492e:	f04f 5300 	mov.w	r3, #536870912	; 0x20000000
 8004932:	689b      	ldr	r3, [r3, #8]
 8004934:	689b      	ldr	r3, [r3, #8]
 8004936:	685b      	ldr	r3, [r3, #4]
 8004938:	4718      	bx	r3

0800493a <systime_sub>:
 800493a:	f04f 5300 	mov.w	r3, #536870912	; 0x20000000
 800493e:	689b      	ldr	r3, [r3, #8]
 8004940:	689b      	ldr	r3, [r3, #8]
 8004942:	689b      	ldr	r3, [r3, #8]
 8004944:	4718      	bx	r3

08004946 <ms_to_systime>:
 8004946:	f04f 5300 	mov.w	r3, #536870912	; 0x20000000
 800494a:	689b      	ldr	r3, [r3, #8]
 800494c:	689b      	ldr	r3, [r3, #8]
 800494e:	691b      	ldr	r3, [r3, #16]
 8004950:	4718      	bx	r3

08004952 <get_uptime>:
 8004952:	2200      	movs	r2, #0
 8004954:	4601      	mov	r1, r0
 8004956:	4613      	mov	r3, r2
 8004958:	200c      	movs	r0, #12
 800495a:	f7fb bc99 	b.w	8000290 <svc_call>

0800495e <systime_hpet_setup>:
 800495e:	4603      	mov	r3, r0
 8004960:	460a      	mov	r2, r1
 8004962:	200f      	movs	r0, #15
 8004964:	4619      	mov	r1, r3
 8004966:	2300      	movs	r3, #0
 8004968:	f7fb bc92 	b.w	8000290 <svc_call>

0800496c <systime_second_pulse>:
 800496c:	b510      	push	{r4, lr}
 800496e:	f04f 5300 	mov.w	r3, #536870912	; 0x20000000
 8004972:	685c      	ldr	r4, [r3, #4]
 8004974:	2100      	movs	r1, #0
 8004976:	46a4      	mov	ip, r4
 8004978:	e8bd 4010 	ldmia.w	sp!, {r4, lr}
 800497c:	200d      	movs	r0, #13
 800497e:	460a      	mov	r2, r1
 8004980:	460b      	mov	r3, r1
 8004982:	4760      	bx	ip

08004984 <systime_hpet_timeout>:
 8004984:	b510      	push	{r4, lr}
 8004986:	f04f 5300 	mov.w	r3, #536870912	; 0x20000000
 800498a:	685c      	ldr	r4, [r3, #4]
 800498c:	2100      	movs	r1, #0
 800498e:	46a4      	mov	ip, r4
 8004990:	e8bd 4010 	ldmia.w	sp!, {r4, lr}
 8004994:	200e      	movs	r0, #14
 8004996:	460a      	mov	r2, r1
 8004998:	460b      	mov	r3, r1
 800499a:	4760      	bx	ip

0800499c <timer_create>:
 800499c:	b507      	push	{r0, r1, r2, lr}
 800499e:	460b      	mov	r3, r1
 80049a0:	4602      	mov	r2, r0
 80049a2:	a901      	add	r1, sp, #4
 80049a4:	2010      	movs	r0, #16
 80049a6:	f7fb fc73 	bl	8000290 <svc_call>
 80049aa:	9801      	ldr	r0, [sp, #4]
 80049ac:	b003      	add	sp, #12
 80049ae:	f85d fb04 	ldr.w	pc, [sp], #4

080049b2 <timer_start>:
 80049b2:	4603      	mov	r3, r0
 80049b4:	460a      	mov	r2, r1
 80049b6:	2011      	movs	r0, #17
 80049b8:	4619      	mov	r1, r3
 80049ba:	2300      	movs	r3, #0
 80049bc:	f7fb bc68 	b.w	8000290 <svc_call>

080049c0 <timer_start_ms>:
 80049c0:	b513      	push	{r0, r1, r4, lr}
 80049c2:	4604      	mov	r4, r0
 80049c4:	4608      	mov	r0, r1
 80049c6:	4669      	mov	r1, sp
 80049c8:	f7ff ffbd 	bl	8004946 <ms_to_systime>
 80049cc:	4620      	mov	r0, r4
 80049ce:	4669      	mov	r1, sp
 80049d0:	f7ff ffef 	bl	80049b2 <timer_start>
 80049d4:	b002      	add	sp, #8
 80049d6:	bd10      	pop	{r4, pc}

080049d8 <object_get.constprop.0>:
 80049d8:	b507      	push	{r0, r1, r2, lr}
 80049da:	f04f 33ff 	mov.w	r3, #4294967295
 80049de:	aa02      	add	r2, sp, #8
 80049e0:	f842 3d04 	str.w	r3, [r2, #-4]!
 80049e4:	202f      	movs	r0, #47	; 0x2f
 80049e6:	2101      	movs	r1, #1
 80049e8:	2300      	movs	r3, #0
 80049ea:	f7fb fc51 	bl	8000290 <svc_call>
 80049ee:	9801      	ldr	r0, [sp, #4]
 80049f0:	b003      	add	sp, #12
 80049f2:	f85d fb04 	ldr.w	pc, [sp], #4

080049f6 <uart_encode_baudrate>:
 80049f6:	6803      	ldr	r3, [r0, #0]
 80049f8:	60cb      	str	r3, [r1, #12]
 80049fa:	7943      	ldrb	r3, [r0, #5]
 80049fc:	7902      	ldrb	r2, [r0, #4]
 80049fe:	021b      	lsls	r3, r3, #8
 8004a00:	ea43 4302 	orr.w	r3, r3, r2, lsl #16
 8004a04:	7982      	ldrb	r2, [r0, #6]
 8004a06:	4313      	orrs	r3, r2
 8004a08:	610b      	str	r3, [r1, #16]
 8004a0a:	4770      	bx	lr

08004a0c <uart_decode_baudrate>:
 8004a0c:	68c3      	ldr	r3, [r0, #12]
 8004a0e:	600b      	str	r3, [r1, #0]
 8004a10:	8a43      	ldrh	r3, [r0, #18]
 8004a12:	710b      	strb	r3, [r1, #4]
 8004a14:	6903      	ldr	r3, [r0, #16]
 8004a16:	0a1b      	lsrs	r3, r3, #8
 8004a18:	714b      	strb	r3, [r1, #5]
 8004a1a:	6903      	ldr	r3, [r0, #16]
 8004a1c:	718b      	strb	r3, [r1, #6]
 8004a1e:	4770      	bx	lr

08004a20 <uart_setup_printk>:
 8004a20:	b513      	push	{r0, r1, r4, lr}
 8004a22:	4604      	mov	r4, r0
 8004a24:	f7ff ffd8 	bl	80049d8 <object_get.constprop.0>
 8004a28:	2300      	movs	r3, #0
 8004a2a:	9300      	str	r3, [sp, #0]
 8004a2c:	4902      	ldr	r1, [pc, #8]	; (8004a38 <uart_setup_printk+0x18>)
 8004a2e:	4622      	mov	r2, r4
 8004a30:	f7ff fee9 	bl	8004806 <ack>
 8004a34:	b002      	add	sp, #8
 8004a36:	bd10      	pop	{r4, pc}
 8004a38:	80060104 	.word	0x80060104

08004a3c <uart_setup_stdout>:
 8004a3c:	b537      	push	{r0, r1, r2, r4, r5, lr}
 8004a3e:	4605      	mov	r5, r0
 8004a40:	2400      	movs	r4, #0
 8004a42:	f7ff ffc9 	bl	80049d8 <object_get.constprop.0>
 8004a46:	462a      	mov	r2, r5
 8004a48:	4623      	mov	r3, r4
 8004a4a:	9400      	str	r4, [sp, #0]
 8004a4c:	4905      	ldr	r1, [pc, #20]	; (8004a64 <uart_setup_stdout+0x28>)
 8004a4e:	f7ff fee7 	bl	8004820 <get_handle>
 8004a52:	4621      	mov	r1, r4
 8004a54:	4602      	mov	r2, r0
 8004a56:	4623      	mov	r3, r4
 8004a58:	202e      	movs	r0, #46	; 0x2e
 8004a5a:	b003      	add	sp, #12
 8004a5c:	e8bd 4030 	ldmia.w	sp!, {r4, r5, lr}
 8004a60:	f7fb bc16 	b.w	8000290 <svc_call>
 8004a64:	8006000b 	.word	0x8006000b

08004a68 <uart_open>:
 8004a68:	b537      	push	{r0, r1, r2, r4, r5, lr}
 8004a6a:	460c      	mov	r4, r1
 8004a6c:	4605      	mov	r5, r0
 8004a6e:	f7ff ffb3 	bl	80049d8 <object_get.constprop.0>
 8004a72:	2300      	movs	r3, #0
 8004a74:	9300      	str	r3, [sp, #0]
 8004a76:	4905      	ldr	r1, [pc, #20]	; (8004a8c <uart_open+0x24>)
 8004a78:	462a      	mov	r2, r5
 8004a7a:	4623      	mov	r3, r4
 8004a7c:	f7ff fed0 	bl	8004820 <get_handle>
 8004a80:	3001      	adds	r0, #1
 8004a82:	bf18      	it	ne
 8004a84:	2001      	movne	r0, #1
 8004a86:	b003      	add	sp, #12
 8004a88:	bd30      	pop	{r4, r5, pc}
 8004a8a:	bf00      	nop
 8004a8c:	80060008 	.word	0x80060008

08004a90 <uart_set_baudrate>:
 8004a90:	b510      	push	{r4, lr}
 8004a92:	4604      	mov	r4, r0
 8004a94:	b086      	sub	sp, #24
 8004a96:	4608      	mov	r0, r1
 8004a98:	a901      	add	r1, sp, #4
 8004a9a:	f7ff ffac 	bl	80049f6 <uart_encode_baudrate>
 8004a9e:	4b05      	ldr	r3, [pc, #20]	; (8004ab4 <uart_set_baudrate+0x24>)
 8004aa0:	9403      	str	r4, [sp, #12]
 8004aa2:	9302      	str	r3, [sp, #8]
 8004aa4:	f7ff ff98 	bl	80049d8 <object_get.constprop.0>
 8004aa8:	9001      	str	r0, [sp, #4]
 8004aaa:	a801      	add	r0, sp, #4
 8004aac:	f7ff fe97 	bl	80047de <call>
 8004ab0:	b006      	add	sp, #24
 8004ab2:	bd10      	pop	{r4, pc}
 8004ab4:	80060100 	.word	0x80060100

08004ab8 <app>:
 8004ab8:	b5f0      	push	{r4, r5, r6, r7, lr}
 8004aba:	483e      	ldr	r0, [pc, #248]	; (8004bb4 <app+0xfc>)
 8004abc:	b089      	sub	sp, #36	; 0x24
 8004abe:	f7ff fec3 	bl	8004848 <process_create>
 8004ac2:	2100      	movs	r1, #0
 8004ac4:	201e      	movs	r0, #30
 8004ac6:	f7fe fc7b 	bl	80033c0 <gpio_enable_pin>
 8004aca:	f04f 37ff 	mov.w	r7, #4294967295
 8004ace:	ad08      	add	r5, sp, #32
 8004ad0:	201e      	movs	r0, #30
 8004ad2:	f7fe fc9f 	bl	8003414 <gpio_reset_pin>
 8004ad6:	f845 7d14 	str.w	r7, [r5, #-20]!
 8004ada:	2400      	movs	r4, #0
 8004adc:	202f      	movs	r0, #47	; 0x2f
 8004ade:	2101      	movs	r1, #1
 8004ae0:	462a      	mov	r2, r5
 8004ae2:	2300      	movs	r3, #0
 8004ae4:	f7fb fbd4 	bl	8000290 <svc_call>
 8004ae8:	2209      	movs	r2, #9
 8004aea:	230b      	movs	r3, #11
 8004aec:	9803      	ldr	r0, [sp, #12]
 8004aee:	4932      	ldr	r1, [pc, #200]	; (8004bb8 <app+0x100>)
 8004af0:	9400      	str	r4, [sp, #0]
 8004af2:	f7ff fe88 	bl	8004806 <ack>
 8004af6:	2102      	movs	r1, #2
 8004af8:	4620      	mov	r0, r4
 8004afa:	f7ff ffb5 	bl	8004a68 <uart_open>
 8004afe:	f44f 33e1 	mov.w	r3, #115200	; 0x1c200
 8004b02:	9303      	str	r3, [sp, #12]
 8004b04:	2308      	movs	r3, #8
 8004b06:	f88d 3010 	strb.w	r3, [sp, #16]
 8004b0a:	234e      	movs	r3, #78	; 0x4e
 8004b0c:	4629      	mov	r1, r5
 8004b0e:	f88d 3011 	strb.w	r3, [sp, #17]
 8004b12:	4620      	mov	r0, r4
 8004b14:	2301      	movs	r3, #1
 8004b16:	f88d 3012 	strb.w	r3, [sp, #18]
 8004b1a:	f7ff ffb9 	bl	8004a90 <uart_set_baudrate>
 8004b1e:	4620      	mov	r0, r4
 8004b20:	f7ff ff7e 	bl	8004a20 <uart_setup_printk>
 8004b24:	ae08      	add	r6, sp, #32
 8004b26:	4620      	mov	r0, r4
 8004b28:	f7ff ff88 	bl	8004a3c <uart_setup_stdout>
 8004b2c:	f846 7d18 	str.w	r7, [r6, #-24]!
 8004b30:	4621      	mov	r1, r4
 8004b32:	202f      	movs	r0, #47	; 0x2f
 8004b34:	4632      	mov	r2, r6
 8004b36:	4623      	mov	r3, r4
 8004b38:	f7fb fbaa 	bl	8000290 <svc_call>
 8004b3c:	9902      	ldr	r1, [sp, #8]
 8004b3e:	42b9      	cmp	r1, r7
 8004b40:	d00a      	beq.n	8004b58 <app+0xa0>
 8004b42:	f04f 5300 	mov.w	r3, #536870912	; 0x20000000
 8004b46:	681f      	ldr	r7, [r3, #0]
 8004b48:	2018      	movs	r0, #24
 8004b4a:	4623      	mov	r3, r4
 8004b4c:	4632      	mov	r2, r6
 8004b4e:	9402      	str	r4, [sp, #8]
 8004b50:	f7fb fb9e 	bl	8000290 <svc_call>
 8004b54:	9b02      	ldr	r3, [sp, #8]
 8004b56:	613b      	str	r3, [r7, #16]
 8004b58:	211d      	movs	r1, #29
 8004b5a:	2000      	movs	r0, #0
 8004b5c:	f7ff ff1e 	bl	800499c <timer_create>
 8004b60:	f44f 717a 	mov.w	r1, #1000	; 0x3e8
 8004b64:	4604      	mov	r4, r0
 8004b66:	f7ff ff2b 	bl	80049c0 <timer_start_ms>
 8004b6a:	4814      	ldr	r0, [pc, #80]	; (8004bbc <app+0x104>)
 8004b6c:	f7ff fea2 	bl	80048b4 <printf>
 8004b70:	4628      	mov	r0, r5
 8004b72:	f7ff fe10 	bl	8004796 <ipc_read>
 8004b76:	f8bd 3012 	ldrh.w	r3, [sp, #18]
 8004b7a:	f3c3 030e 	ubfx	r3, r3, #0, #15
 8004b7e:	3b10      	subs	r3, #16
 8004b80:	2b0d      	cmp	r3, #13
 8004b82:	d80e      	bhi.n	8004ba2 <app+0xea>
 8004b84:	2201      	movs	r2, #1
 8004b86:	409a      	lsls	r2, r3
 8004b88:	f242 3341 	movw	r3, #9025	; 0x2341
 8004b8c:	4013      	ands	r3, r2
 8004b8e:	b143      	cbz	r3, 8004ba2 <app+0xea>
 8004b90:	480b      	ldr	r0, [pc, #44]	; (8004bc0 <app+0x108>)
 8004b92:	f7ff fe8f 	bl	80048b4 <printf>
 8004b96:	4620      	mov	r0, r4
 8004b98:	f44f 717a 	mov.w	r1, #1000	; 0x3e8
 8004b9c:	f7ff ff10 	bl	80049c0 <timer_start_ms>
 8004ba0:	e003      	b.n	8004baa <app+0xf2>
 8004ba2:	f06f 0001 	mvn.w	r0, #1
 8004ba6:	f7ff fe6a 	bl	800487e <error>
 8004baa:	4628      	mov	r0, r5
 8004bac:	f7ff fdda 	bl	8004764 <ipc_write>
 8004bb0:	e7de      	b.n	8004b70 <app+0xb8>
 8004bb2:	bf00      	nop
 8004bb4:	0800572c 	.word	0x0800572c
 8004bb8:	80010100 	.word	0x80010100
 8004bbc:	08005798 	.word	0x08005798
 8004bc0:	080057a2 	.word	0x080057a2

08004bc4 <memcpy>:
 8004bc4:	4684      	mov	ip, r0
 8004bc6:	ea41 0300 	orr.w	r3, r1, r0
 8004bca:	f013 0303 	ands.w	r3, r3, #3
 8004bce:	d149      	bne.n	8004c64 <memcpy+0xa0>
 8004bd0:	3a40      	subs	r2, #64	; 0x40
 8004bd2:	d323      	bcc.n	8004c1c <memcpy+0x58>
 8004bd4:	680b      	ldr	r3, [r1, #0]
 8004bd6:	6003      	str	r3, [r0, #0]
 8004bd8:	684b      	ldr	r3, [r1, #4]
 8004bda:	6043      	str	r3, [r0, #4]
 8004bdc:	688b      	ldr	r3, [r1, #8]
 8004bde:	6083      	str	r3, [r0, #8]
 8004be0:	68cb      	ldr	r3, [r1, #12]
 8004be2:	60c3      	str	r3, [r0, #12]
 8004be4:	690b      	ldr	r3, [r1, #16]
 8004be6:	6103      	str	r3, [r0, #16]
 8004be8:	694b      	ldr	r3, [r1, #20]
 8004bea:	6143      	str	r3, [r0, #20]
 8004bec:	698b      	ldr	r3, [r1, #24]
 8004bee:	6183      	str	r3, [r0, #24]
 8004bf0:	69cb      	ldr	r3, [r1, #28]
 8004bf2:	61c3      	str	r3, [r0, #28]
 8004bf4:	6a0b      	ldr	r3, [r1, #32]
 8004bf6:	6203      	str	r3, [r0, #32]
 8004bf8:	6a4b      	ldr	r3, [r1, #36]	; 0x24
 8004bfa:	6243      	str	r3, [r0, #36]	; 0x24
 8004bfc:	6a8b      	ldr	r3, [r1, #40]	; 0x28
 8004bfe:	6283      	str	r3, [r0, #40]	; 0x28
 8004c00:	6acb      	ldr	r3, [r1, #44]	; 0x2c
 8004c02:	62c3      	str	r3, [r0, #44]	; 0x2c
 8004c04:	6b0b      	ldr	r3, [r1, #48]	; 0x30
 8004c06:	6303      	str	r3, [r0, #48]	; 0x30
 8004c08:	6b4b      	ldr	r3, [r1, #52]	; 0x34
 8004c0a:	6343      	str	r3, [r0, #52]	; 0x34
 8004c0c:	6b8b      	ldr	r3, [r1, #56]	; 0x38
 8004c0e:	6383      	str	r3, [r0, #56]	; 0x38
 8004c10:	6bcb      	ldr	r3, [r1, #60]	; 0x3c
 8004c12:	63c3      	str	r3, [r0, #60]	; 0x3c
 8004c14:	3040      	adds	r0, #64	; 0x40
 8004c16:	3140      	adds	r1, #64	; 0x40
 8004c18:	3a40      	subs	r2, #64	; 0x40
 8004c1a:	d2db      	bcs.n	8004bd4 <memcpy+0x10>
 8004c1c:	3230      	adds	r2, #48	; 0x30
 8004c1e:	d30b      	bcc.n	8004c38 <memcpy+0x74>
 8004c20:	680b      	ldr	r3, [r1, #0]
 8004c22:	6003      	str	r3, [r0, #0]
 8004c24:	684b      	ldr	r3, [r1, #4]
 8004c26:	6043      	str	r3, [r0, #4]
 8004c28:	688b      	ldr	r3, [r1, #8]
 8004c2a:	6083      	str	r3, [r0, #8]
 8004c2c:	68cb      	ldr	r3, [r1, #12]
 8004c2e:	60c3      	str	r3, [r0, #12]
 8004c30:	3010      	adds	r0, #16
 8004c32:	3110      	adds	r1, #16
 8004c34:	3a10      	subs	r2, #16
 8004c36:	d2f3      	bcs.n	8004c20 <memcpy+0x5c>
 8004c38:	320c      	adds	r2, #12
 8004c3a:	d305      	bcc.n	8004c48 <memcpy+0x84>
 8004c3c:	f851 3b04 	ldr.w	r3, [r1], #4
 8004c40:	f840 3b04 	str.w	r3, [r0], #4
 8004c44:	3a04      	subs	r2, #4
 8004c46:	d2f9      	bcs.n	8004c3c <memcpy+0x78>
 8004c48:	3204      	adds	r2, #4
 8004c4a:	d008      	beq.n	8004c5e <memcpy+0x9a>
 8004c4c:	07d2      	lsls	r2, r2, #31
 8004c4e:	bf1c      	itt	ne
 8004c50:	f811 3b01 	ldrbne.w	r3, [r1], #1
 8004c54:	f800 3b01 	strbne.w	r3, [r0], #1
 8004c58:	d301      	bcc.n	8004c5e <memcpy+0x9a>
 8004c5a:	880b      	ldrh	r3, [r1, #0]
 8004c5c:	8003      	strh	r3, [r0, #0]
 8004c5e:	4660      	mov	r0, ip
 8004c60:	4770      	bx	lr
 8004c62:	bf00      	nop
 8004c64:	2a08      	cmp	r2, #8
 8004c66:	d313      	bcc.n	8004c90 <memcpy+0xcc>
 8004c68:	078b      	lsls	r3, r1, #30
 8004c6a:	d0b1      	beq.n	8004bd0 <memcpy+0xc>
 8004c6c:	f010 0303 	ands.w	r3, r0, #3
 8004c70:	d0ae      	beq.n	8004bd0 <memcpy+0xc>
 8004c72:	f1c3 0304 	rsb	r3, r3, #4
 8004c76:	1ad2      	subs	r2, r2, r3
 8004c78:	07db      	lsls	r3, r3, #31
 8004c7a:	bf1c      	itt	ne
 8004c7c:	f811 3b01 	ldrbne.w	r3, [r1], #1
 8004c80:	f800 3b01 	strbne.w	r3, [r0], #1
 8004c84:	d3a4      	bcc.n	8004bd0 <memcpy+0xc>
 8004c86:	f831 3b02 	ldrh.w	r3, [r1], #2
 8004c8a:	f820 3b02 	strh.w	r3, [r0], #2
 8004c8e:	e79f      	b.n	8004bd0 <memcpy+0xc>
 8004c90:	3a04      	subs	r2, #4
 8004c92:	d3d9      	bcc.n	8004c48 <memcpy+0x84>
 8004c94:	3a01      	subs	r2, #1
 8004c96:	f811 3b01 	ldrb.w	r3, [r1], #1
 8004c9a:	f800 3b01 	strb.w	r3, [r0], #1
 8004c9e:	d2f9      	bcs.n	8004c94 <memcpy+0xd0>
 8004ca0:	780b      	ldrb	r3, [r1, #0]
 8004ca2:	7003      	strb	r3, [r0, #0]
 8004ca4:	784b      	ldrb	r3, [r1, #1]
 8004ca6:	7043      	strb	r3, [r0, #1]
 8004ca8:	788b      	ldrb	r3, [r1, #2]
 8004caa:	7083      	strb	r3, [r0, #2]
 8004cac:	4660      	mov	r0, ip
 8004cae:	4770      	bx	lr

08004cb0 <memmove>:
 8004cb0:	4288      	cmp	r0, r1
 8004cb2:	b5f0      	push	{r4, r5, r6, r7, lr}
 8004cb4:	d90d      	bls.n	8004cd2 <memmove+0x22>
 8004cb6:	188b      	adds	r3, r1, r2
 8004cb8:	4298      	cmp	r0, r3
 8004cba:	d20a      	bcs.n	8004cd2 <memmove+0x22>
 8004cbc:	1881      	adds	r1, r0, r2
 8004cbe:	2a00      	cmp	r2, #0
 8004cc0:	d054      	beq.n	8004d6c <memmove+0xbc>
 8004cc2:	1a9a      	subs	r2, r3, r2
 8004cc4:	f813 4d01 	ldrb.w	r4, [r3, #-1]!
 8004cc8:	4293      	cmp	r3, r2
 8004cca:	f801 4d01 	strb.w	r4, [r1, #-1]!
 8004cce:	d1f9      	bne.n	8004cc4 <memmove+0x14>
 8004cd0:	bdf0      	pop	{r4, r5, r6, r7, pc}
 8004cd2:	2a0f      	cmp	r2, #15
 8004cd4:	d948      	bls.n	8004d68 <memmove+0xb8>
 8004cd6:	ea40 0301 	orr.w	r3, r0, r1
 8004cda:	079b      	lsls	r3, r3, #30
 8004cdc:	d147      	bne.n	8004d6e <memmove+0xbe>
 8004cde:	4615      	mov	r5, r2
 8004ce0:	f100 0410 	add.w	r4, r0, #16
 8004ce4:	f101 0310 	add.w	r3, r1, #16
 8004ce8:	f853 6c10 	ldr.w	r6, [r3, #-16]
 8004cec:	3d10      	subs	r5, #16
 8004cee:	f844 6c10 	str.w	r6, [r4, #-16]
 8004cf2:	f853 6c0c 	ldr.w	r6, [r3, #-12]
 8004cf6:	2d0f      	cmp	r5, #15
 8004cf8:	f844 6c0c 	str.w	r6, [r4, #-12]
 8004cfc:	f853 6c08 	ldr.w	r6, [r3, #-8]
 8004d00:	f104 0410 	add.w	r4, r4, #16
 8004d04:	f844 6c18 	str.w	r6, [r4, #-24]
 8004d08:	f853 6c04 	ldr.w	r6, [r3, #-4]
 8004d0c:	f103 0310 	add.w	r3, r3, #16
 8004d10:	f844 6c14 	str.w	r6, [r4, #-20]
 8004d14:	d8e8      	bhi.n	8004ce8 <memmove+0x38>
 8004d16:	f1a2 0310 	sub.w	r3, r2, #16
 8004d1a:	f023 030f 	bic.w	r3, r3, #15
 8004d1e:	f002 0e0f 	and.w	lr, r2, #15
 8004d22:	3310      	adds	r3, #16
 8004d24:	f1be 0f03 	cmp.w	lr, #3
 8004d28:	4419      	add	r1, r3
 8004d2a:	4403      	add	r3, r0
 8004d2c:	d921      	bls.n	8004d72 <memmove+0xc2>
 8004d2e:	460e      	mov	r6, r1
 8004d30:	4674      	mov	r4, lr
 8004d32:	1f1d      	subs	r5, r3, #4
 8004d34:	f856 7b04 	ldr.w	r7, [r6], #4
 8004d38:	3c04      	subs	r4, #4
 8004d3a:	2c03      	cmp	r4, #3
 8004d3c:	f845 7f04 	str.w	r7, [r5, #4]!
 8004d40:	d8f8      	bhi.n	8004d34 <memmove+0x84>
 8004d42:	f1ae 0404 	sub.w	r4, lr, #4
 8004d46:	f024 0403 	bic.w	r4, r4, #3
 8004d4a:	3404      	adds	r4, #4
 8004d4c:	4423      	add	r3, r4
 8004d4e:	4421      	add	r1, r4
 8004d50:	f002 0203 	and.w	r2, r2, #3
 8004d54:	b152      	cbz	r2, 8004d6c <memmove+0xbc>
 8004d56:	3b01      	subs	r3, #1
 8004d58:	440a      	add	r2, r1
 8004d5a:	f811 4b01 	ldrb.w	r4, [r1], #1
 8004d5e:	4291      	cmp	r1, r2
 8004d60:	f803 4f01 	strb.w	r4, [r3, #1]!
 8004d64:	d1f9      	bne.n	8004d5a <memmove+0xaa>
 8004d66:	bdf0      	pop	{r4, r5, r6, r7, pc}
 8004d68:	4603      	mov	r3, r0
 8004d6a:	e7f3      	b.n	8004d54 <memmove+0xa4>
 8004d6c:	bdf0      	pop	{r4, r5, r6, r7, pc}
 8004d6e:	4603      	mov	r3, r0
 8004d70:	e7f1      	b.n	8004d56 <memmove+0xa6>
 8004d72:	4672      	mov	r2, lr
 8004d74:	e7ee      	b.n	8004d54 <memmove+0xa4>
 8004d76:	bf00      	nop

08004d78 <memset>:
 8004d78:	b470      	push	{r4, r5, r6}
 8004d7a:	0784      	lsls	r4, r0, #30
 8004d7c:	d046      	beq.n	8004e0c <memset+0x94>
 8004d7e:	1e54      	subs	r4, r2, #1
 8004d80:	2a00      	cmp	r2, #0
 8004d82:	d041      	beq.n	8004e08 <memset+0x90>
 8004d84:	b2cd      	uxtb	r5, r1
 8004d86:	4603      	mov	r3, r0
 8004d88:	e002      	b.n	8004d90 <memset+0x18>
 8004d8a:	1e62      	subs	r2, r4, #1
 8004d8c:	b3e4      	cbz	r4, 8004e08 <memset+0x90>
 8004d8e:	4614      	mov	r4, r2
 8004d90:	f803 5b01 	strb.w	r5, [r3], #1
 8004d94:	079a      	lsls	r2, r3, #30
 8004d96:	d1f8      	bne.n	8004d8a <memset+0x12>
 8004d98:	2c03      	cmp	r4, #3
 8004d9a:	d92e      	bls.n	8004dfa <memset+0x82>
 8004d9c:	b2cd      	uxtb	r5, r1
 8004d9e:	ea45 2505 	orr.w	r5, r5, r5, lsl #8
 8004da2:	2c0f      	cmp	r4, #15
 8004da4:	ea45 4505 	orr.w	r5, r5, r5, lsl #16
 8004da8:	d919      	bls.n	8004dde <memset+0x66>
 8004daa:	4626      	mov	r6, r4
 8004dac:	f103 0210 	add.w	r2, r3, #16
 8004db0:	3e10      	subs	r6, #16
 8004db2:	2e0f      	cmp	r6, #15
 8004db4:	f842 5c10 	str.w	r5, [r2, #-16]
 8004db8:	f842 5c0c 	str.w	r5, [r2, #-12]
 8004dbc:	f842 5c08 	str.w	r5, [r2, #-8]
 8004dc0:	f842 5c04 	str.w	r5, [r2, #-4]
 8004dc4:	f102 0210 	add.w	r2, r2, #16
 8004dc8:	d8f2      	bhi.n	8004db0 <memset+0x38>
 8004dca:	f1a4 0210 	sub.w	r2, r4, #16
 8004dce:	f022 020f 	bic.w	r2, r2, #15
 8004dd2:	f004 040f 	and.w	r4, r4, #15
 8004dd6:	3210      	adds	r2, #16
 8004dd8:	2c03      	cmp	r4, #3
 8004dda:	4413      	add	r3, r2
 8004ddc:	d90d      	bls.n	8004dfa <memset+0x82>
 8004dde:	461e      	mov	r6, r3
 8004de0:	4622      	mov	r2, r4
 8004de2:	3a04      	subs	r2, #4
 8004de4:	2a03      	cmp	r2, #3
 8004de6:	f846 5b04 	str.w	r5, [r6], #4
 8004dea:	d8fa      	bhi.n	8004de2 <memset+0x6a>
 8004dec:	1f22      	subs	r2, r4, #4
 8004dee:	f022 0203 	bic.w	r2, r2, #3
 8004df2:	3204      	adds	r2, #4
 8004df4:	4413      	add	r3, r2
 8004df6:	f004 0403 	and.w	r4, r4, #3
 8004dfa:	b12c      	cbz	r4, 8004e08 <memset+0x90>
 8004dfc:	b2c9      	uxtb	r1, r1
 8004dfe:	441c      	add	r4, r3
 8004e00:	f803 1b01 	strb.w	r1, [r3], #1
 8004e04:	42a3      	cmp	r3, r4
 8004e06:	d1fb      	bne.n	8004e00 <memset+0x88>
 8004e08:	bc70      	pop	{r4, r5, r6}
 8004e0a:	4770      	bx	lr
 8004e0c:	4614      	mov	r4, r2
 8004e0e:	4603      	mov	r3, r0
 8004e10:	e7c2      	b.n	8004d98 <memset+0x20>
 8004e12:	bf00      	nop

08004e14 <strcpy>:
 8004e14:	ea80 0201 	eor.w	r2, r0, r1
 8004e18:	4684      	mov	ip, r0
 8004e1a:	f012 0f03 	tst.w	r2, #3
 8004e1e:	d14f      	bne.n	8004ec0 <strcpy+0xac>
 8004e20:	f011 0f03 	tst.w	r1, #3
 8004e24:	d132      	bne.n	8004e8c <strcpy+0x78>
 8004e26:	f84d 4d04 	str.w	r4, [sp, #-4]!
 8004e2a:	f011 0f04 	tst.w	r1, #4
 8004e2e:	f851 3b04 	ldr.w	r3, [r1], #4
 8004e32:	d00b      	beq.n	8004e4c <strcpy+0x38>
 8004e34:	f1a3 3201 	sub.w	r2, r3, #16843009	; 0x1010101
 8004e38:	439a      	bics	r2, r3
 8004e3a:	f012 3f80 	tst.w	r2, #2155905152	; 0x80808080
 8004e3e:	bf04      	itt	eq
 8004e40:	f84c 3b04 	streq.w	r3, [ip], #4
 8004e44:	f851 3b04 	ldreq.w	r3, [r1], #4
 8004e48:	d116      	bne.n	8004e78 <strcpy+0x64>
 8004e4a:	bf00      	nop
 8004e4c:	f851 4b04 	ldr.w	r4, [r1], #4
 8004e50:	f1a3 3201 	sub.w	r2, r3, #16843009	; 0x1010101
 8004e54:	439a      	bics	r2, r3
 8004e56:	f012 3f80 	tst.w	r2, #2155905152	; 0x80808080
 8004e5a:	f1a4 3201 	sub.w	r2, r4, #16843009	; 0x1010101
 8004e5e:	d10b      	bne.n	8004e78 <strcpy+0x64>
 8004e60:	f84c 3b04 	str.w	r3, [ip], #4
 8004e64:	43a2      	bics	r2, r4
 8004e66:	f012 3f80 	tst.w	r2, #2155905152	; 0x80808080
 8004e6a:	bf04      	itt	eq
 8004e6c:	f851 3b04 	ldreq.w	r3, [r1], #4
 8004e70:	f84c 4b04 	streq.w	r4, [ip], #4
 8004e74:	d0ea      	beq.n	8004e4c <strcpy+0x38>
 8004e76:	4623      	mov	r3, r4
 8004e78:	f80c 3b01 	strb.w	r3, [ip], #1
 8004e7c:	f013 0fff 	tst.w	r3, #255	; 0xff
 8004e80:	ea4f 2333 	mov.w	r3, r3, ror #8
 8004e84:	d1f8      	bne.n	8004e78 <strcpy+0x64>
 8004e86:	f85d 4b04 	ldr.w	r4, [sp], #4
 8004e8a:	4770      	bx	lr
 8004e8c:	f011 0f01 	tst.w	r1, #1
 8004e90:	d006      	beq.n	8004ea0 <strcpy+0x8c>
 8004e92:	f811 2b01 	ldrb.w	r2, [r1], #1
 8004e96:	f80c 2b01 	strb.w	r2, [ip], #1
 8004e9a:	2a00      	cmp	r2, #0
 8004e9c:	bf08      	it	eq
 8004e9e:	4770      	bxeq	lr
 8004ea0:	f011 0f02 	tst.w	r1, #2
 8004ea4:	d0bf      	beq.n	8004e26 <strcpy+0x12>
 8004ea6:	f831 2b02 	ldrh.w	r2, [r1], #2
 8004eaa:	f012 0fff 	tst.w	r2, #255	; 0xff
 8004eae:	bf16      	itet	ne
 8004eb0:	f82c 2b02 	strhne.w	r2, [ip], #2
 8004eb4:	f88c 2000 	strbeq.w	r2, [ip]
 8004eb8:	f412 4f7f 	tstne.w	r2, #65280	; 0xff00
 8004ebc:	d1b3      	bne.n	8004e26 <strcpy+0x12>
 8004ebe:	4770      	bx	lr
 8004ec0:	f811 2b01 	ldrb.w	r2, [r1], #1
 8004ec4:	f80c 2b01 	strb.w	r2, [ip], #1
 8004ec8:	2a00      	cmp	r2, #0
 8004eca:	d1f9      	bne.n	8004ec0 <strcpy+0xac>
 8004ecc:	4770      	bx	lr
 8004ece:	bf00      	nop

08004ed0 <strlen>:
 8004ed0:	f020 0103 	bic.w	r1, r0, #3
 8004ed4:	f010 0003 	ands.w	r0, r0, #3
 8004ed8:	f1c0 0000 	rsb	r0, r0, #0
 8004edc:	f851 3b04 	ldr.w	r3, [r1], #4
 8004ee0:	f100 0c04 	add.w	ip, r0, #4
 8004ee4:	ea4f 0ccc 	mov.w	ip, ip, lsl #3
 8004ee8:	f06f 0200 	mvn.w	r2, #0
 8004eec:	bf1c      	itt	ne
 8004eee:	fa22 f20c 	lsrne.w	r2, r2, ip
 8004ef2:	4313      	orrne	r3, r2
 8004ef4:	f04f 0c01 	mov.w	ip, #1
 8004ef8:	ea4c 2c0c 	orr.w	ip, ip, ip, lsl #8
 8004efc:	ea4c 4c0c 	orr.w	ip, ip, ip, lsl #16
 8004f00:	eba3 020c 	sub.w	r2, r3, ip
 8004f04:	ea22 0203 	bic.w	r2, r2, r3
 8004f08:	ea12 12cc 	ands.w	r2, r2, ip, lsl #7
 8004f0c:	bf04      	itt	eq
 8004f0e:	f851 3b04 	ldreq.w	r3, [r1], #4
 8004f12:	3004      	addeq	r0, #4
 8004f14:	d0f4      	beq.n	8004f00 <strlen+0x30>
 8004f16:	f1c2 0100 	rsb	r1, r2, #0
 8004f1a:	ea02 0201 	and.w	r2, r2, r1
 8004f1e:	fab2 f282 	clz	r2, r2
 8004f22:	f1c2 021f 	rsb	r2, r2, #31
 8004f26:	eb00 00d2 	add.w	r0, r0, r2, lsr #3
 8004f2a:	4770      	bx	lr
 8004f2c:	44524148 	.word	0x44524148
 8004f30:	55414620 	.word	0x55414620
 8004f34:	203a544c 	.word	0x203a544c
 8004f38:	63655600 	.word	0x63655600
 8004f3c:	20726f74 	.word	0x20726f74
 8004f40:	6c626174 	.word	0x6c626174
 8004f44:	65722065 	.word	0x65722065
 8004f48:	66206461 	.word	0x66206461
 8004f4c:	746c7561 	.word	0x746c7561
 8004f50:	20746120 	.word	0x20746120
 8004f54:	302e2325 	.word	0x302e2325
 8004f58:	000a7838 	.word	0x000a7838
 8004f5c:	20535953 	.word	0x20535953
 8004f60:	6c6c6163 	.word	0x6c6c6163
 8004f64:	69687720 	.word	0x69687720
 8004f68:	6420656c 	.word	0x6420656c
 8004f6c:	62617369 	.word	0x62617369
 8004f70:	2064656c 	.word	0x2064656c
 8004f74:	65746e69 	.word	0x65746e69
 8004f78:	70757272 	.word	0x70757272
 8004f7c:	61207374 	.word	0x61207374
 8004f80:	23252074 	.word	0x23252074
 8004f84:	7838302e 	.word	0x7838302e
 8004f88:	6547000a 	.word	0x6547000a
 8004f8c:	6172656e 	.word	0x6172656e
 8004f90:	6168206c 	.word	0x6168206c
 8004f94:	66206472 	.word	0x66206472
 8004f98:	746c7561 	.word	0x746c7561
 8004f9c:	20746120 	.word	0x20746120
 8004fa0:	302e2325 	.word	0x302e2325
 8004fa4:	000a7838 	.word	0x000a7838
 8004fa8:	204d454d 	.word	0x204d454d
 8004fac:	414e414d 	.word	0x414e414d
 8004fb0:	203a4547 	.word	0x203a4547
 8004fb4:	61745300 	.word	0x61745300
 8004fb8:	6e696b63 	.word	0x6e696b63
 8004fbc:	61662067 	.word	0x61662067
 8004fc0:	64656c69 	.word	0x64656c69
 8004fc4:	736e5500 	.word	0x736e5500
 8004fc8:	6b636174 	.word	0x6b636174
 8004fcc:	20676e69 	.word	0x20676e69
 8004fd0:	6c696166 	.word	0x6c696166
 8004fd4:	44006465 	.word	0x44006465
 8004fd8:	20617461 	.word	0x20617461
 8004fdc:	65636361 	.word	0x65636361
 8004fe0:	76207373 	.word	0x76207373
 8004fe4:	616c6f69 	.word	0x616c6f69
 8004fe8:	6e6f6974 	.word	0x6e6f6974
 8004fec:	736e4900 	.word	0x736e4900
 8004ff0:	63757274 	.word	0x63757274
 8004ff4:	6e6f6974 	.word	0x6e6f6974
 8004ff8:	63636120 	.word	0x63636120
 8004ffc:	20737365 	.word	0x20737365
 8005000:	6c6f6976 	.word	0x6c6f6976
 8005004:	6f697461 	.word	0x6f697461
 8005008:	6120006e 	.word	0x6120006e
 800500c:	23252074 	.word	0x23252074
 8005010:	7838302e 	.word	0x7838302e
 8005014:	63202c0a 	.word	0x63202c0a
 8005018:	656c6c61 	.word	0x656c6c61
 800501c:	23252072 	.word	0x23252072
 8005020:	7838302e 	.word	0x7838302e
 8005024:	53554200 	.word	0x53554200
 8005028:	55414620 	.word	0x55414620
 800502c:	203a544c 	.word	0x203a544c
 8005030:	61745300 	.word	0x61745300
 8005034:	6e696b63 	.word	0x6e696b63
 8005038:	61662067 	.word	0x61662067
 800503c:	64656c69 	.word	0x64656c69
 8005040:	20746120 	.word	0x20746120
 8005044:	302e2325 	.word	0x302e2325
 8005048:	000a7838 	.word	0x000a7838
 800504c:	74736e55 	.word	0x74736e55
 8005050:	696b6361 	.word	0x696b6361
 8005054:	6620676e 	.word	0x6620676e
 8005058:	656c6961 	.word	0x656c6961
 800505c:	74612064 	.word	0x74612064
 8005060:	2e232520 	.word	0x2e232520
 8005064:	0a783830 	.word	0x0a783830
 8005068:	74614400 	.word	0x74614400
 800506c:	75622061 	.word	0x75622061
 8005070:	72652073 	.word	0x72652073
 8005074:	20726f72 	.word	0x20726f72
 8005078:	25207461 	.word	0x25207461
 800507c:	38302e23 	.word	0x38302e23
 8005080:	63202c78 	.word	0x63202c78
 8005084:	656c6c61 	.word	0x656c6c61
 8005088:	23252072 	.word	0x23252072
 800508c:	7838302e 	.word	0x7838302e
 8005090:	6e49000a 	.word	0x6e49000a
 8005094:	75727473 	.word	0x75727473
 8005098:	6f697463 	.word	0x6f697463
 800509c:	7562206e 	.word	0x7562206e
 80050a0:	72652073 	.word	0x72652073
 80050a4:	20726f72 	.word	0x20726f72
 80050a8:	25207461 	.word	0x25207461
 80050ac:	38302e23 	.word	0x38302e23
 80050b0:	63202c78 	.word	0x63202c78
 80050b4:	656c6c61 	.word	0x656c6c61
 80050b8:	23252072 	.word	0x23252072
 80050bc:	7838302e 	.word	0x7838302e
 80050c0:	5355000a 	.word	0x5355000a
 80050c4:	20454741 	.word	0x20454741
 80050c8:	4c554146 	.word	0x4c554146
 80050cc:	00203a54 	.word	0x00203a54
 80050d0:	69766944 	.word	0x69766944
 80050d4:	6e6f6973 	.word	0x6e6f6973
 80050d8:	20796220 	.word	0x20796220
 80050dc:	6f72657a 	.word	0x6f72657a
 80050e0:	616e5500 	.word	0x616e5500
 80050e4:	6e67696c 	.word	0x6e67696c
 80050e8:	61206465 	.word	0x61206465
 80050ec:	73656363 	.word	0x73656363
 80050f0:	6f4e0073 	.word	0x6f4e0073
 80050f4:	706f6320 	.word	0x706f6320
 80050f8:	65636f72 	.word	0x65636f72
 80050fc:	726f7373 	.word	0x726f7373
 8005100:	756f6620 	.word	0x756f6620
 8005104:	5500646e 	.word	0x5500646e
 8005108:	6665646e 	.word	0x6665646e
 800510c:	64656e69 	.word	0x64656e69
 8005110:	736e6920 	.word	0x736e6920
 8005114:	63757274 	.word	0x63757274
 8005118:	6e6f6974 	.word	0x6e6f6974
 800511c:	766e4900 	.word	0x766e4900
 8005120:	64696c61 	.word	0x64696c61
 8005124:	61747320 	.word	0x61747320
 8005128:	00006574 	.word	0x00006574

0800512c <__KERNEL_NAME>:
 800512c:	08005130 4f784552 2e302053 00352e34     0Q..RExOS 0.4.5.
 800513c:	6e72654b 70206c65 63696e61 656d000a     Kernel panic..me
 800514c:	79726f6d 6d756420 78302070 78383025     mory dump 0x%08x
 800515c:	2578302d 0a783830 25783000 3a783830     -0x%08x..0x%08x:
 800516c:	30250020 00205832                        .%02X .

08005174 <__KSTD_MEM_STARTUP>:
 8005174:	080007e9 00000000 00000000              ............

08005180 <__KSTD_MEM>:
 8005180:	08000815 080008a5 08000975 6e726157     ........u...Warn
 8005190:	3a676e69 71726920 63657620 20726f74     ing: irq vector 
 80051a0:	73206425 20627574 6c6c6163 000a6465     %d stub called..

080051b0 <__KIRQ_STUB>:
 80051b0:	08000b31 00000000 00000000 41564e49     1...........INVA
 80051c0:	2044494c 444e4148 6120454c 73252074     LID HANDLE at %s
 80051d0:	696c202c 2520656e 63202c64 656c6c61     , line %d, calle
 80051e0:	72702072 7365636f 25203a73 2e000a73     r process: %s...
 80051f0:	2f2e2e2f 6f786572 656b2f73 6c656e72     /../rexos/kernel
 8005200:	72706b2f 7365636f 00632e73 45535341     /kprocess.c.ASSE
 8005210:	61205452 73252074 696c202c 2520656e     RT at %s, line %
 8005220:	57000a64 696e7261 203a676e 6f6e6261     d..Warning: abno
 8005230:	6c616d72 6f727020 73736563 72657420     rmal process ter
 8005240:	616e696d 6e6f6974 7325203a 2d25000a     mination: %s..%-
 8005250:	322e3032 00207330 64333025 20202020     20.20s .%03d    
 8005260:	34250020 00202062 20623425 20202000      .%4b  .%4b .   
 8005270:	21212020 4d414421 44454741 20212121       !!!DAMAGED!!! 
 8005280:	20202020 33252000 30252862 20296432         . %3b(%02d) 
 8005290:	25002020 252f6233 25286233 29643230       .%3b/%3b(%02d)
 80052a0:	33250020 30253a64 252e6432 00643330      .%3d:%02d.%03d.
 80052b0:	2020200a 6d616e20 20202065 20202020     .    name       
 80052c0:	20202020 6f697270 79746972 74732020         priority  st
 80052d0:	206b6361 7a697320 20202065 64657375     ack  size   used
 80052e0:	20202020 66202020 20656572 20202020            free     
 80052f0:	75202020 6d697470 2d000a65 2d2d2d2d        uptime..-----
 8005300:	2d2d2d2d 2d2d2d2d 2d2d2d2d 2d2d2d2d     ----------------
 8005310:	2d2d2d2d 2d2d2d2d 2d2d2d2d 2d2d2d2d     ----------------
 8005320:	2d2d2d2d 2d2d2d2d 2d2d2d2d 2d2d2d2d     ----------------
 8005330:	2d2d2d2d 2d2d2d2d 2d2d2d2d 2d2d2d2d     ----------------
 8005340:	2d2d2d2d 6f74000a 206c6174 70206425     ----..total %d p
 8005350:	65636f72 73657373 25000a73 58383023     rocessess..%#08X
 8005360:	20202020 20202020 20202020 20202020                     
 8005370:	20202020 20202020 33250020 30252862              .%3b(%0
 8005380:	20296432 33250020 33252f62 30252862     2d)  .%3b/%3b(%0
 8005390:	00296432 30322d25 7330322e 20202020     2d).%-20.20s    
 80053a0:	20202020 61570020 6e696e72 48203a67          .Warning: H
 80053b0:	20544550 72617473 74732074 63206275     PET start stub c
 80053c0:	656c6c61 57000a64 696e7261 203a676e     alled..Warning: 
 80053d0:	54455048 6f747320 74732070 63206275     HPET stop stub c
 80053e0:	656c6c61 57000a64 696e7261 203a676e     alled..Warning: 
 80053f0:	54455048 616c6520 64657370 75747320     HPET elapsed stu
 8005400:	61632062 64656c6c 2f2e000a 722f2e2e     b called.../../r
 8005410:	736f7865 72656b2f 2f6c656e 7379736b     exos/kernel/ksys
 8005420:	656d6974 4900632e 64204350 6c646165     time.c.IPC deadl
 8005430:	3a6b636f 0a732520 2e2f2e00 65722f2e     ock: %s.../../re
 8005440:	2f736f78 6e72656b 6b2f6c65 2e637069     xos/kernel/kipc.
 8005450:	72450063 3a726f72 63657220 65766965     c.Error: receive
 8005460:	73252072 43504920 65766f20 6f6c6672     r %s IPC overflo
 8005470:	000a2177 646e6553 203a7265 6e72656b     w!..Sender: kern
 8005480:	000a6c65 646e6553 203a7265 000a7325     el..Sender: %s..
 8005490:	3a646d63 58232520 3170202c 2325203a     cmd: %#X, p1: %#
 80054a0:	70202c58 25203a32 202c5823 203a3370     X, p2: %#X, p3: 
 80054b0:	0a582325 2e2f2e00 65722f2e 2f736f78     %#X.../../rexos/
 80054c0:	6e72656b 6b2f6c65 65727473 632e6d61     kernel/kstream.c
 80054d0:	2e2f2e00 65722f2e 2f736f78 6e72656b     ../../rexos/kern
 80054e0:	6b2f6c65 632e6f69 00000000              el/kio.c....

080054ec <__LIB>:
 80054ec:	0800554c 08005570 08005500 08005594     LU..pU...U...U..
 80054fc:	080055b8                                .U..

08005500 <__LIB_SYSTIME>:
 8005500:	08002509 0800246d 0800252f 0800249d     .%..m$../%...$..
 8005510:	080024b1 080024c5 080024e5 080025ad     .$...$...$...%..
 8005520:	0800258f 08002571                       .%..q%..

08005528 <zeroes>:
 8005528:	30303030 30303030 4d4b3030 002d0047     0000000000KMG.-.
 8005538:	7830002b 20004f00                                +.0x.O.

0800553f <spaces>:
 800553f:	20202020 20202020 00002020 00295700                        ...

0800554c <__LIB_STD>:
 800554c:	08002957 0800297d 080025c9 080026a9     W)..})...%...&..
 800555c:	080025dd 08002727 080025f1 080027fd     .%..''...%...'..
 800556c:	08002855                                U(..

08005570 <__LIB_STDIO>:
 8005570:	08002a11 08002de9 08002dc5 08002957     .*...-...-..W)..
 8005580:	0800297d 08002e49 08002e1b 08002e67     })..I.......g...
 8005590:	08002e91                                ....

08005594 <__LIB_ARRAY>:
 8005594:	08002eb7 08002ed7 08002f15 08002ee7     ........./......
 80055a4:	08002f35 08002f79 08002eed 08002fd5     5/..y/......./..
 80055b4:	08002ef7                                ....

080055b8 <__LIB_SO>:
 80055b8:	08003017 0800302d 08003159 080030e3     .0..-0..Y1...0..
 80055c8:	080031c7 0800313d 08003031 08003073     .1..=1..10..s0..
 80055d8:	080030b7                                .0..

080055dc <GPIO_POWER_PINS>:
 80055dc:	00000002 00000003 00000004 00000005     ................
 80055ec:	00000006 00000007 00000008              ............

080055f8 <GPIO>:
 80055f8:	40010800 40010c00 40011000 40011400     ...@...@...@...@
 8005608:	40011800 40011c00 40012000              ...@...@. .@

08005614 <TIMER_REGS>:
 8005614:	40012c00 40000000 40000400 40000800     .,.@...@...@...@
 8005624:	40000c00 40001000 40001400 40013400     ...@...@...@.4.@
 8005634:	40014c00 40015000 40015400 40001800     .L.@.P.@.T.@...@
 8005644:	40001c00 40002000 40014000 40014400     ...@. .@.@.@.D.@
 8005654:	40014800                                .H.@

08005658 <TIMER_POWER_PORT>:
 8005658:	40021018 4002101c 4002101c 4002101c     ...@...@...@...@
 8005668:	4002101c 4002101c 4002101c 40021018     ...@...@...@...@
 8005678:	40021018 40021018 40021018 4002101c     ...@...@...@...@
 8005688:	4002101c 4002101c 40021018 40021018     ...@...@...@...@
 8005698:	40021018                                ...@

0800569c <TIMER_POWER_BIT>:
 800569c:	0000000b 00000000 00000001 00000002     ................
 80056ac:	00000003 00000004 00000005 0000000d     ................
 80056bc:	00000013 00000014 00000015 00000006     ................
 80056cc:	00000007 00000008 00000010 00000011     ................
 80056dc:	00000012                                ....

080056e0 <CSWTCH.11>:
 80056e0:	68010101                                ...h

080056e4 <CSWTCH.12>:
 80056e4:	000a0200                                ....

080056e8 <TIMER_VECTORS>:
 80056e8:	00000019 0000001c 0000001d 0000001e     ................
 80056f8:	00000032 00000036 00000037 0000002c     2...6...7...,...
 8005708:	00000018 00000019 0000001a 0000002b     ............+...
 8005718:	0000002c 0000002d 00000018 00000019     ,...-...........
 8005728:	0000001a                                ....

0800572c <__STM32_CORE>:
 800572c:	08005740 00000400 0000005a 01000001     @W......Z.......
 800573c:	08003ec1 334d5453 6f632032 64206572     .>..STM32 core d
 800574c:	65766972 00000072                       river...

08005754 <UART_VECTORS>:
 8005754:	00000025 00000026 00000027              %...&...'...

08005760 <UART_POWER_PINS>:
 8005760:	0000000e 00000011 00000012              ............

0800576c <UART_REGS>:
 800576c:	40013800 40004400 40004800              .8.@.D.@.H.@

08005778 <__STD_MEM>:
 8005778:	080048d7 080048f1 08004911              .H...H...I..

08005784 <__APP>:
 8005784:	080057ba 00000400 000000c8 01000001     .W..............
 8005794:	08004ab9 20707041 74696e69 7061000a     .J..App init..ap
 80057a4:	69742070 2072656d 656d6974 2074756f     p timer timeout 
 80057b4:	74736574 7041000a 616d2070 00006e69     test..App main..
